(lp0
(lp1
(lp2
(lp3
S'h'
p4
aI10
aI10
aa(lp5
S's'
p6
aI10
aI10
aaa(lp7
(lp8
g4
aI10
aI10
aa(lp9
g6
aI10
aI10
aaa(lp10
(lp11
g4
aI10
aI10
aa(lp12
g6
aI10
aI10
aaa(lp13
(lp14
g4
aI10
aI10
aa(lp15
g6
aI10
aI10
aaa(lp16
(lp17
g4
aI10
aI10
aa(lp18
g6
aI10
aI10
aaa(lp19
(lp20
g4
aI10
aI10
aa(lp21
g6
aI10
aI10
aaa(lp22
(lp23
g4
aI10
aI10
aa(lp24
g6
aI10
aI10
aaa(lp25
(lp26
g4
aI10
aI10
aa(lp27
g6
aI10
aI10
aaa(lp28
(lp29
g4
aI10
aI10
aa(lp30
g6
aI10
aI10
aaa(lp31
(lp32
g4
aI10
aI10
aa(lp33
g6
aI10
aI10
aaa(lp34
(lp35
g4
aI10
aI10
aa(lp36
g6
aI10
aI10
aaa(lp37
(lp38
g4
aI10
aI10
aa(lp39
g6
aI10
aI10
aaa(lp40
(lp41
g4
aI10
aI10
aa(lp42
g6
aI10
aI10
aaa(lp43
(lp44
g4
aI10
aI10
aa(lp45
g6
aI10
aI10
aaa(lp46
(lp47
g4
aI10
aI10
aa(lp48
g6
aI10
aI10
aaa(lp49
(lp50
g4
aI10
aI10
aa(lp51
g6
aI10
aI10
aaa(lp52
(lp53
g4
aI10
aI10
aa(lp54
g6
aI10
aI10
aaa(lp55
(lp56
g4
aI10
aI10
aa(lp57
g6
aI10
aI10
aaa(lp58
(lp59
g4
aI10
aI10
aa(lp60
g6
aI10
aI10
aaa(lp61
(lp62
g4
aI10
aI10
aa(lp63
g6
aI10
aI10
aaa(lp64
(lp65
g4
aI10
aI10
aa(lp66
g6
aI10
aI10
aaa(lp67
(lp68
g4
aI10
aI10
aa(lp69
g6
aI10
aI10
aaaa(lp70
(lp71
(lp72
g4
aI10
aI10
aa(lp73
g6
aI10
aI10
aaa(lp74
(lp75
g4
aI10
aI10
aa(lp76
g6
aI10
aI10
aaa(lp77
(lp78
g4
aI10
aI10
aa(lp79
g6
aI10
aI10
aaa(lp80
(lp81
g4
aI10
aI10
aa(lp82
g6
aI10
aI10
aaa(lp83
(lp84
g4
aI10
aI10
aa(lp85
g6
aI10
aI10
aaa(lp86
(lp87
g4
aI10
aI10
aa(lp88
g6
aI10
aI10
aaa(lp89
(lp90
g4
aI10
aI10
aa(lp91
g6
aI10
aI10
aaa(lp92
(lp93
g4
aI10
aI10
aa(lp94
g6
aI10
aI10
aaa(lp95
(lp96
g4
aI10
aI10
aa(lp97
g6
aI10
aI10
aaa(lp98
(lp99
g4
aI10
aI10
aa(lp100
g6
aI10
aI10
aaa(lp101
(lp102
g4
aI10
aI10
aa(lp103
g6
aI10
aI10
aaa(lp104
(lp105
g4
aI10
aI10
aa(lp106
g6
aI10
aI10
aaa(lp107
(lp108
g4
aI10
aI10
aa(lp109
g6
aI10
aI10
aaa(lp110
(lp111
g4
aI10
aI10
aa(lp112
g6
aI10
aI10
aaa(lp113
(lp114
g4
aI10
aI10
aa(lp115
g6
aI10
aI10
aaa(lp116
(lp117
g4
aI10
aI10
aa(lp118
g6
aI10
aI10
aaa(lp119
(lp120
g4
aI10
aI10
aa(lp121
g6
aI10
aI10
aaa(lp122
(lp123
g4
aI10
aI10
aa(lp124
g6
aI10
aI10
aaa(lp125
(lp126
g4
aI10
aI10
aa(lp127
g6
aI10
aI10
aaa(lp128
(lp129
g4
aI10
aI10
aa(lp130
g6
aI10
aI10
aaa(lp131
(lp132
g4
aI10
aI10
aa(lp133
g6
aI10
aI10
aaa(lp134
(lp135
g4
aI10
aI10
aa(lp136
g6
aI10
aI10
aaaa(lp137
(lp138
(lp139
g4
aI10
aI10
aa(lp140
g6
aI10
aI10
aaa(lp141
(lp142
g4
aI10
aI10
aa(lp143
g6
aI10
aI10
aaa(lp144
(lp145
g4
aI10
aI10
aa(lp146
g6
aI10
aI10
aaa(lp147
(lp148
g4
aI10
aI10
aa(lp149
g6
aI10
aI10
aaa(lp150
(lp151
g4
aI32641
aI68101
aa(lp152
g6
aI33899
aI71215
aaa(lp153
(lp154
g4
aI72769
aI152906
aa(lp155
g6
aI72573
aI151339
aaa(lp156
(lp157
g4
aI463505
aI819203
aa(lp158
g6
aI477206
aI844667
aaa(lp159
(lp160
g4
aI630482
aI1115838
aa(lp161
g6
aI647976
aI1144574
aaa(lp162
(lp163
g4
aI804881
aI1419323
aa(lp164
g6
aI792680
aI1397268
aaa(lp165
(lp166
g4
aI973235
aI1718678
aa(lp167
g6
aI1011430
aI1772631
aaa(lp168
(lp169
g4
aI1131718
aI1980841
aa(lp170
g6
aI1165060
aI2042204
aaa(lp171
(lp172
g4
aI1319962
aI2302013
aa(lp173
g6
aI1315606
aI2298433
aaa(lp174
(lp175
g4
aI2566539
aI4562074
aa(lp176
g6
aI2559975
aI4530872
aaa(lp177
(lp178
g4
aI2630752
aI4679743
aa(lp179
g6
aI2678126
aI4730628
aaa(lp180
(lp181
g4
aI2478863
aI4412750
aa(lp182
g6
aI2465905
aI4366771
aaa(lp183
(lp184
g4
aI2309016
aI4118143
aa(lp185
g6
aI2301427
aI4078847
aaa(lp186
(lp187
g4
aI2127492
aI3798932
aa(lp188
g6
aI2133550
aI3776547
aaa(lp189
(lp190
g4
aI1987744
aI3556360
aa(lp191
g6
aI1983172
aI3518475
aaa(lp192
(lp193
g4
aI1800041
aI3226535
aa(lp194
g6
aI1812741
aI3209965
aaa(lp195
(lp196
g4
aI1631904
aI2940614
aa(lp197
g6
aI1676927
aI2952959
aaa(lp198
(lp199
g4
aI674466
aI1446749
aa(lp200
g6
aI682713
aI1426489
aaa(lp201
(lp202
g4
aI10
aI10
aa(lp203
g6
aI10
aI10
aaaa(lp204
(lp205
(lp206
g4
aI10
aI10
aa(lp207
g6
aI10
aI10
aaa(lp208
(lp209
g4
aI10
aI10
aa(lp210
g6
aI10
aI10
aaa(lp211
(lp212
g4
aI10
aI10
aa(lp213
g6
aI10
aI10
aaa(lp214
(lp215
g4
aI10
aI10
aa(lp216
g6
aI10
aI10
aaa(lp217
(lp218
g4
aI35794
aI74956
aa(lp219
g6
aI35928
aI76928
aaa(lp220
(lp221
g4
aI72902
aI152606
aa(lp222
g6
aI72467
aI151989
aaa(lp223
(lp224
g4
aI481509
aI848733
aa(lp225
g6
aI471895
aI833084
aaa(lp226
(lp227
g4
aI659773
aI1159876
aa(lp228
g6
aI658107
aI1161102
aaa(lp229
(lp230
g4
aI813287
aI1431207
aa(lp231
g6
aI791711
aI1394491
aaa(lp232
(lp233
g4
aI955835
aI1681152
aa(lp234
g6
aI970513
aI1707540
aaa(lp235
(lp236
g4
aI1140166
aI1991488
aa(lp237
g6
aI1151536
aI2014553
aaa(lp238
(lp239
g4
aI1296639
aI2258301
aa(lp240
g6
aI1350398
aI2355032
aaa(lp241
(lp242
g4
aI2596433
aI4606008
aa(lp243
g6
aI2643823
aI4656400
aaa(lp244
(lp245
g4
aI2571497
aI4565442
aa(lp246
g6
aI2551981
aI4508154
aaa(lp247
(lp248
g4
aI2407153
aI4290866
aa(lp249
g6
aI2468526
aI4362686
aaa(lp250
(lp251
g4
aI2303659
aI4110276
aa(lp252
g6
aI2295641
aI4062977
aaa(lp253
(lp254
g4
aI2139001
aI3816081
aa(lp255
g6
aI2165309
aI3832618
aaa(lp256
(lp257
g4
aI1970278
aI3523082
aa(lp258
g6
aI2020133
aI3571011
aaa(lp259
(lp260
g4
aI1785659
aI3201638
aa(lp261
g6
aI1835963
aI3237435
aaa(lp262
(lp263
g4
aI1631835
aI2929046
aa(lp264
g6
aI1675188
aI2941852
aaa(lp265
(lp266
g4
aI677834
aI1456601
aa(lp267
g6
aI697630
aI1454516
aaa(lp268
(lp269
g4
aI10
aI10
aa(lp270
g6
aI10
aI10
aaaa(lp271
(lp272
(lp273
g4
aI10
aI10
aa(lp274
g6
aI10
aI10
aaa(lp275
(lp276
g4
aI10
aI10
aa(lp277
g6
aI10
aI10
aaa(lp278
(lp279
g4
aI10
aI10
aa(lp280
g6
aI10
aI10
aaa(lp281
(lp282
g4
aI10
aI10
aa(lp283
g6
aI10
aI10
aaa(lp284
(lp285
g4
aI36139
aI75566
aa(lp286
g6
aI37860
aI78693
aaa(lp287
(lp288
g4
aI78591
aI163696
aa(lp289
g6
aI78586
aI165310
aaa(lp290
(lp291
g4
aI484802
aI850215
aa(lp292
g6
aI475865
aI835247
aaa(lp293
(lp294
g4
aI665527
aI1171091
aa(lp295
g6
aI689107
aI1205971
aaa(lp296
(lp297
g4
aI854078
aI1501706
aa(lp298
g6
aI825355
aI1449222
aaa(lp299
(lp300
g4
aI1039147
aI1825018
aa(lp301
g6
aI1032712
aI1815002
aaa(lp302
(lp303
g4
aI1217324
aI2123307
aa(lp304
g6
aI1190909
aI2081158
aaa(lp305
(lp306
g4
aI1394759
aI2424000
aa(lp307
g6
aI1374322
aI2396917
aaa(lp308
(lp309
g4
aI2709281
aI4800040
aa(lp310
g6
aI2731058
aI4803462
aaa(lp311
(lp312
g4
aI2815602
aI4996621
aa(lp313
g6
aI2724630
aI4795780
aaa(lp314
(lp315
g4
aI2547138
aI4522421
aa(lp316
g6
aI2522234
aI4440412
aaa(lp317
(lp318
g4
aI2472055
aI4402283
aa(lp319
g6
aI2401714
aI4238629
aaa(lp320
(lp321
g4
aI2246677
aI4004911
aa(lp322
g6
aI2339076
aI4118555
aaa(lp323
(lp324
g4
aI2117009
aI3783650
aa(lp325
g6
aI2145972
aI3791448
aaa(lp326
(lp327
g4
aI1908953
aI3411852
aa(lp328
g6
aI1942446
aI3420576
aaa(lp329
(lp330
g4
aI1760422
aI3148122
aa(lp331
g6
aI1823700
aI3198307
aaa(lp332
(lp333
g4
aI715681
aI1536469
aa(lp334
g6
aI727022
aI1501202
aaa(lp335
(lp336
g4
aI10
aI10
aa(lp337
g6
aI10
aI10
aaaa(lp338
(lp339
(lp340
g4
aI10
aI10
aa(lp341
g6
aI10
aI10
aaa(lp342
(lp343
g4
aI10
aI10
aa(lp344
g6
aI10
aI10
aaa(lp345
(lp346
g4
aI10
aI10
aa(lp347
g6
aI10
aI10
aaa(lp348
(lp349
g4
aI10
aI10
aa(lp350
g6
aI10
aI10
aaa(lp351
(lp352
g4
aI37177
aI77176
aa(lp353
g6
aI38688
aI79651
aaa(lp354
(lp355
g4
aI83459
aI175354
aa(lp356
g6
aI83089
aI173089
aaa(lp357
(lp358
g4
aI552868
aI970674
aa(lp359
g6
aI521283
aI916759
aaa(lp360
(lp361
g4
aI696125
aI1222674
aa(lp362
g6
aI680594
aI1196824
aaa(lp363
(lp364
g4
aI891949
aI1563611
aa(lp365
g6
aI861331
aI1512563
aaa(lp366
(lp367
g4
aI1064005
aI1866934
aa(lp368
g6
aI1062591
aI1858498
aaa(lp369
(lp370
g4
aI1236638
aI2149352
aa(lp371
g6
aI1235270
aI2152634
aaa(lp372
(lp373
g4
aI1437521
aI2491159
aa(lp374
g6
aI1462615
aI2546623
aaa(lp375
(lp376
g4
aI2903626
aI5136963
aa(lp377
g6
aI2873466
aI5042927
aaa(lp378
(lp379
g4
aI2970194
aI5254327
aa(lp380
g6
aI2858723
aI5018044
aaa(lp381
(lp382
g4
aI2767146
aI4902150
aa(lp383
g6
aI2727378
aI4798840
aaa(lp384
(lp385
g4
aI2492036
aI4438210
aa(lp386
g6
aI2531933
aI4443812
aaa(lp387
(lp388
g4
aI2412342
aI4299040
aa(lp389
g6
aI2423951
aI4268517
aaa(lp390
(lp391
g4
aI2253906
aI4030884
aa(lp392
g6
aI2277359
aI4013117
aaa(lp393
(lp394
g4
aI2099456
aI3756513
aa(lp395
g6
aI2094659
aI3673473
aaa(lp396
(lp397
g4
aI1895209
aI3398999
aa(lp398
g6
aI1987592
aI3474077
aaa(lp399
(lp400
g4
aI754878
aI1619174
aa(lp401
g6
aI785663
aI1624309
aaa(lp402
(lp403
g4
aI10
aI10
aa(lp404
g6
aI10
aI10
aaaa(lp405
(lp406
(lp407
g4
aI10
aI10
aa(lp408
g6
aI10
aI10
aaa(lp409
(lp410
g4
aI10
aI10
aa(lp411
g6
aI10
aI10
aaa(lp412
(lp413
g4
aI10
aI10
aa(lp414
g6
aI10
aI10
aaa(lp415
(lp416
g4
aI10
aI10
aa(lp417
g6
aI10
aI10
aaa(lp418
(lp419
g4
aI40676
aI84036
aa(lp420
g6
aI40576
aI84958
aaa(lp421
(lp422
g4
aI85224
aI178222
aa(lp423
g6
aI86667
aI180933
aaa(lp424
(lp425
g4
aI550920
aI964833
aa(lp426
g6
aI553859
aI968584
aaa(lp427
(lp428
g4
aI742450
aI1304233
aa(lp429
g6
aI753155
aI1320818
aaa(lp430
(lp431
g4
aI901939
aI1581715
aa(lp432
g6
aI914612
aI1601877
aaa(lp433
(lp434
g4
aI1116287
aI1952982
aa(lp435
g6
aI1098139
aI1927562
aaa(lp436
(lp437
g4
aI1315352
aI2283968
aa(lp438
g6
aI1328099
aI2318836
aaa(lp439
(lp440
g4
aI1545630
aI2671435
aa(lp441
g6
aI1517150
aI2650535
aaa(lp442
(lp443
g4
aI3042532
aI5364474
aa(lp444
g6
aI3052642
aI5358636
aaa(lp445
(lp446
g4
aI3074072
aI5431428
aa(lp447
g6
aI3065643
aI5387126
aaa(lp448
(lp449
g4
aI2971486
aI5256032
aa(lp450
g6
aI2967352
aI5220869
aaa(lp451
(lp452
g4
aI2760062
aI4902646
aa(lp453
g6
aI2818650
aI4955107
aaa(lp454
(lp455
g4
aI2564517
aI4566777
aa(lp456
g6
aI2540915
aI4479143
aaa(lp457
(lp458
g4
aI2445728
aI4367616
aa(lp459
g6
aI2455201
aI4327251
aaa(lp460
(lp461
g4
aI2327905
aI4161388
aa(lp462
g6
aI2353150
aI4098361
aaa(lp463
(lp464
g4
aI2224283
aI3979376
aa(lp465
g6
aI2192701
aI3803228
aaa(lp466
(lp467
g4
aI821655
aI1761097
aa(lp468
g6
aI864659
aI1773046
aaa(lp469
(lp470
g4
aI10
aI10
aa(lp471
g6
aI10
aI10
aaaa(lp472
(lp473
(lp474
g4
aI10
aI10
aa(lp475
g6
aI10
aI10
aaa(lp476
(lp477
g4
aI10
aI10
aa(lp478
g6
aI10
aI10
aaa(lp479
(lp480
g4
aI10
aI10
aa(lp481
g6
aI10
aI10
aaa(lp482
(lp483
g4
aI10
aI10
aa(lp484
g6
aI10
aI10
aaa(lp485
(lp486
g4
aI42202
aI89400
aa(lp487
g6
aI41609
aI88184
aaa(lp488
(lp489
g4
aI88276
aI186663
aa(lp490
g6
aI89815
aI188434
aaa(lp491
(lp492
g4
aI562345
aI998794
aa(lp493
g6
aI579119
aI1032564
aaa(lp494
(lp495
g4
aI793790
aI1404929
aa(lp496
g6
aI789895
aI1407199
aaa(lp497
(lp498
g4
aI994180
aI1748145
aa(lp499
g6
aI971937
aI1734731
aaa(lp500
(lp501
g4
aI1183864
aI2085206
aa(lp502
g6
aI1197908
aI2129413
aaa(lp503
(lp504
g4
aI1447463
aI2520488
aa(lp505
g6
aI1392605
aI2476473
aaa(lp506
(lp507
g4
aI1645529
aI2859919
aa(lp508
g6
aI1598286
aI2831450
aaa(lp509
(lp510
g4
aI3282212
aI5819606
aa(lp511
g6
aI3296465
aI5880035
aaa(lp512
(lp513
g4
aI3439433
aI6102334
aa(lp514
g6
aI3391015
aI6048240
aaa(lp515
(lp516
g4
aI3318838
aI5913426
aa(lp517
g6
aI3265496
aI5835626
aaa(lp518
(lp519
g4
aI3227785
aI5755578
aa(lp520
g6
aI3221208
aI5754832
aaa(lp521
(lp522
g4
aI3152348
aI5618855
aa(lp523
g6
aI3097662
aI5536218
aaa(lp524
(lp525
g4
aI2924107
aI5235634
aa(lp526
g6
aI2957901
aI5283951
aaa(lp527
(lp528
g4
aI2893898
aI5179389
aa(lp529
g6
aI2940780
aI5086528
aaa(lp530
(lp531
g4
aI2795277
aI5012954
aa(lp532
g6
aI2849370
aI4886701
aaa(lp533
(lp534
g4
aI994132
aI2135493
aa(lp535
g6
aI1043156
aI2113913
aaa(lp536
(lp537
g4
aI10
aI10
aa(lp538
g6
aI10
aI10
aaaa(lp539
(lp540
(lp541
g4
aI10
aI10
aa(lp542
g6
aI10
aI10
aaa(lp543
(lp544
g4
aI10
aI10
aa(lp545
g6
aI10
aI10
aaa(lp546
(lp547
g4
aI10
aI10
aa(lp548
g6
aI10
aI10
aaa(lp549
(lp550
g4
aI10
aI10
aa(lp551
g6
aI10
aI10
aaa(lp552
(lp553
g4
aI43818
aI92511
aa(lp554
g6
aI42987
aI91106
aaa(lp555
(lp556
g4
aI92677
aI195643
aa(lp557
g6
aI89501
aI191415
aaa(lp558
(lp559
g4
aI577407
aI1024727
aa(lp560
g6
aI579093
aI1034246
aaa(lp561
(lp562
g4
aI843704
aI1494958
aa(lp563
g6
aI835407
aI1487838
aaa(lp564
(lp565
g4
aI1024642
aI1814904
aa(lp566
g6
aI1014811
aI1807527
aaa(lp567
(lp568
g4
aI1263150
aI2222999
aa(lp569
g6
aI1267585
aI2254114
aaa(lp570
(lp571
g4
aI1456887
aI2544747
aa(lp572
g6
aI1479800
aI2625968
aaa(lp573
(lp574
g4
aI1710382
aI2984762
aa(lp575
g6
aI1698772
aI3022424
aaa(lp576
(lp577
g4
aI3480513
aI6175896
aa(lp578
g6
aI3438662
aI6149691
aaa(lp579
(lp580
g4
aI3669753
aI6519549
aa(lp581
g6
aI3628918
aI6483052
aaa(lp582
(lp583
g4
aI3518577
aI6264068
aa(lp584
g6
aI3531219
aI6322690
aaa(lp585
(lp586
g4
aI3474247
aI6197285
aa(lp587
g6
aI3438071
aI6156604
aaa(lp588
(lp589
g4
aI3366158
aI6013163
aa(lp590
g6
aI3348607
aI5995378
aaa(lp591
(lp592
g4
aI3297176
aI5895422
aa(lp593
g6
aI3274357
aI5857924
aaa(lp594
(lp595
g4
aI3103988
aI5555268
aa(lp596
g6
aI3077666
aI5474490
aaa(lp597
(lp598
g4
aI3080311
aI5521673
aa(lp599
g6
aI3158843
aI5439248
aaa(lp600
(lp601
g4
aI1068038
aI2296249
aa(lp602
g6
aI1139824
aI2300886
aaa(lp603
(lp604
g4
aI10
aI10
aa(lp605
g6
aI10
aI10
aaaa(lp606
(lp607
(lp608
g4
aI10
aI10
aa(lp609
g6
aI10
aI10
aaa(lp610
(lp611
g4
aI10
aI10
aa(lp612
g6
aI10
aI10
aaa(lp613
(lp614
g4
aI10
aI10
aa(lp615
g6
aI10
aI10
aaa(lp616
(lp617
g4
aI10
aI10
aa(lp618
g6
aI10
aI10
aaa(lp619
(lp620
g4
aI44892
aI95264
aa(lp621
g6
aI45475
aI96632
aaa(lp622
(lp623
g4
aI92688
aI196064
aa(lp624
g6
aI92007
aI195618
aaa(lp625
(lp626
g4
aI601469
aI1067957
aa(lp627
g6
aI586966
aI1050957
aaa(lp628
(lp629
g4
aI855372
aI1517887
aa(lp630
g6
aI827529
aI1476327
aaa(lp631
(lp632
g4
aI1042150
aI1847077
aa(lp633
g6
aI1045271
aI1864427
aaa(lp634
(lp635
g4
aI1288868
aI2281362
aa(lp636
g6
aI1283763
aI2292735
aaa(lp637
(lp638
g4
aI1520218
aI2667625
aa(lp639
g6
aI1509947
aI2694875
aaa(lp640
(lp641
g4
aI1790977
aI3122101
aa(lp642
g6
aI1728208
aI3081887
aaa(lp643
(lp644
g4
aI3620570
aI6446911
aa(lp645
g6
aI3549013
aI6358010
aaa(lp646
(lp647
g4
aI3794533
aI6754534
aa(lp648
g6
aI3794986
aI6785475
aaa(lp649
(lp650
g4
aI3763313
aI6708817
aa(lp651
g6
aI3676978
aI6581089
aaa(lp652
(lp653
g4
aI3670640
aI6560877
aa(lp654
g6
aI3673186
aI6578596
aaa(lp655
(lp656
g4
aI3598496
aI6434843
aa(lp657
g6
aI3605396
aI6463022
aaa(lp658
(lp659
g4
aI3532880
aI6328036
aa(lp660
g6
aI3514985
aI6304499
aaa(lp661
(lp662
g4
aI3405763
aI6104597
aa(lp663
g6
aI3393694
aI6038283
aaa(lp664
(lp665
g4
aI3226043
aI5797193
aa(lp666
g6
aI3257248
aI5744824
aaa(lp667
(lp668
g4
aI1152367
aI2473202
aa(lp669
g6
aI1184793
aI2400888
aaa(lp670
(lp671
g4
aI10
aI10
aa(lp672
g6
aI10
aI10
aaaa(lp673
(lp674
(lp675
g4
aI10
aI10
aa(lp676
g6
aI10
aI10
aaa(lp677
(lp678
g4
aI10
aI10
aa(lp679
g6
aI10
aI10
aaa(lp680
(lp681
g4
aI10
aI10
aa(lp682
g6
aI10
aI10
aaa(lp683
(lp684
g4
aI10
aI10
aa(lp685
g6
aI10
aI10
aaa(lp686
(lp687
g4
aI138991
aI294393
aa(lp688
g6
aI138745
aI295023
aaa(lp689
(lp690
g4
aI300361
aI634281
aa(lp691
g6
aI306030
aI648339
aaa(lp692
(lp693
g4
aI1913413
aI3403271
aa(lp694
g6
aI1931384
aI3449113
aaa(lp695
(lp696
g4
aI2686696
aI4778811
aa(lp697
g6
aI2612625
aI4669757
aaa(lp698
(lp699
g4
aI3354516
aI5951166
aa(lp700
g6
aI3347528
aI5972352
aaa(lp701
(lp702
g4
aI4154021
aI7353240
aa(lp703
g6
aI4111380
aI7340788
aaa(lp704
(lp705
g4
aI4892453
aI8615567
aa(lp706
g6
aI4784094
aI8539012
aaa(lp707
(lp708
g4
aI5686464
aI9939365
aa(lp709
g6
aI5563944
aI9912262
aaa(lp710
(lp711
g4
aI11366024
aI20225216
aa(lp712
g6
aI11281410
aI20175285
aaa(lp713
(lp714
g4
aI11858350
aI21137389
aa(lp715
g6
aI11628060
aI20814980
aaa(lp716
(lp717
g4
aI11614456
aI20724426
aa(lp718
g6
aI11203193
aI20054597
aaa(lp719
(lp720
g4
aI11405706
aI20380910
aa(lp721
g6
aI11096326
aI19881686
aaa(lp722
(lp723
g4
aI10877550
aI19488159
aa(lp724
g6
aI10659723
aI19104532
aaa(lp725
(lp726
g4
aI10516914
aI18862000
aa(lp727
g6
aI10318276
aI18511783
aaa(lp728
(lp729
g4
aI9987060
aI17956387
aa(lp730
g6
aI10079112
aI17930690
aaa(lp731
(lp732
g4
aI9691508
aI17446721
aa(lp733
g6
aI9717693
aI17132273
aaa(lp734
(lp735
g4
aI3405623
aI7323769
aa(lp736
g6
aI3476609
aI7194518
aaa(lp737
(lp738
g4
aI10
aI10
aa(lp739
g6
aI10
aI10
aaaa(lp740
(lp741
(lp742
g4
aI10
aI10
aa(lp743
g6
aI10
aI10
aaa(lp744
(lp745
g4
aI10
aI10
aa(lp746
g6
aI10
aI10
aaa(lp747
(lp748
g4
aI10
aI10
aa(lp749
g6
aI10
aI10
aaa(lp750
(lp751
g4
aI10
aI10
aa(lp752
g6
aI10
aI10
aaa(lp753
(lp754
g4
aI32238
aI67692
aa(lp755
g6
aI33599
aI71523
aaa(lp756
(lp757
g4
aI67461
aI144080
aa(lp758
g6
aI66986
aI142452
aaa(lp759
(lp760
g4
aI449455
aI799617
aa(lp761
g6
aI441737
aI788936
aaa(lp762
(lp763
g4
aI607856
aI1083047
aa(lp764
g6
aI628723
aI1120414
aaa(lp765
(lp766
g4
aI766685
aI1362488
aa(lp767
g6
aI747319
aI1337008
aaa(lp768
(lp769
g4
aI949821
aI1681176
aa(lp770
g6
aI928029
aI1663233
aaa(lp771
(lp772
g4
aI1115431
aI1961352
aa(lp773
g6
aI1112307
aI1981998
aaa(lp774
(lp775
g4
aI1338247
aI2337288
aa(lp776
g6
aI1302775
aI2320899
aaa(lp777
(lp778
g4
aI2702456
aI4808656
aa(lp779
g6
aI2643191
aI4732264
aaa(lp780
(lp781
g4
aI2803981
aI4997387
aa(lp782
g6
aI2765886
aI4953236
aaa(lp783
(lp784
g4
aI2741485
aI4897546
aa(lp785
g6
aI2710518
aI4866630
aaa(lp786
(lp787
g4
aI2692862
aI4826894
aa(lp788
g6
aI2699587
aI4835908
aaa(lp789
(lp790
g4
aI2656318
aI4754825
aa(lp791
g6
aI2602411
aI4664445
aaa(lp792
(lp793
g4
aI2592524
aI4650275
aa(lp794
g6
aI2591490
aI4646323
aaa(lp795
(lp796
g4
aI2558908
aI4585593
aa(lp797
g6
aI2507754
aI4437906
aaa(lp798
(lp799
g4
aI2470048
aI4442073
aa(lp800
g6
aI2447867
aI4289485
aaa(lp801
(lp802
g4
aI861207
aI1850088
aa(lp803
g6
aI862982
aI1765246
aaa(lp804
(lp805
g4
aI10
aI10
aa(lp806
g6
aI10
aI10
aaaa(lp807
(lp808
(lp809
g4
aI10
aI10
aa(lp810
g6
aI10
aI10
aaa(lp811
(lp812
g4
aI10
aI10
aa(lp813
g6
aI10
aI10
aaa(lp814
(lp815
g4
aI10
aI10
aa(lp816
g6
aI10
aI10
aaa(lp817
(lp818
g4
aI10
aI10
aa(lp819
g6
aI10
aI10
aaa(lp820
(lp821
g4
aI12682
aI26319
aa(lp822
g6
aI11868
aI25029
aaa(lp823
(lp824
g4
aI26818
aI55980
aa(lp825
g6
aI25613
aI54569
aaa(lp826
(lp827
g4
aI181031
aI319950
aa(lp828
g6
aI177200
aI315288
aaa(lp829
(lp830
g4
aI247939
aI438313
aa(lp831
g6
aI249458
aI443486
aaa(lp832
(lp833
g4
aI318336
aI562391
aa(lp834
g6
aI329055
aI580942
aaa(lp835
(lp836
g4
aI423314
aI741576
aa(lp837
g6
aI413680
aI731438
aaa(lp838
(lp839
g4
aI510884
aI889971
aa(lp840
g6
aI482895
aI854713
aaa(lp841
(lp842
g4
aI598007
aI1039877
aa(lp843
g6
aI601881
aI1066570
aaa(lp844
(lp845
g4
aI1241978
aI2199631
aa(lp846
g6
aI1284924
aI2287667
aaa(lp847
(lp848
g4
aI1377051
aI2450233
aa(lp849
g6
aI1410275
aI2507682
aaa(lp850
(lp851
g4
aI1438505
aI2567592
aa(lp852
g6
aI1457451
aI2591728
aaa(lp853
(lp854
g4
aI1512497
aI2697891
aa(lp855
g6
aI1500254
aI2666168
aaa(lp856
(lp857
g4
aI1580219
aI2819093
aa(lp858
g6
aI1540847
aI2748393
aaa(lp859
(lp860
g4
aI1610026
aI2878103
aa(lp861
g6
aI1599015
aI2853156
aaa(lp862
(lp863
g4
aI1592592
aI2856675
aa(lp864
g6
aI1633040
aI2873501
aaa(lp865
(lp866
g4
aI1674869
aI3011207
aa(lp867
g6
aI1677755
aI2910529
aaa(lp868
(lp869
g4
aI503989
aI1080770
aa(lp870
g6
aI522912
aI1059003
aaa(lp871
(lp872
g4
aI10
aI10
aa(lp873
g6
aI10
aI10
aaaa(lp874
(lp875
(lp876
g4
aI10
aI10
aa(lp877
g6
aI10
aI10
aaa(lp878
(lp879
g4
aI10
aI10
aa(lp880
g6
aI10
aI10
aaa(lp881
(lp882
g4
aI10
aI10
aa(lp883
g6
aI10
aI10
aaa(lp884
(lp885
g4
aI10
aI10
aa(lp886
g6
aI10
aI10
aaa(lp887
(lp888
g4
aI11806
aI24866
aa(lp889
g6
aI11796
aI25966
aaa(lp890
(lp891
g4
aI26548
aI55913
aa(lp892
g6
aI24813
aI53540
aaa(lp893
(lp894
g4
aI173853
aI306207
aa(lp895
g6
aI165451
aI294622
aaa(lp896
(lp897
g4
aI244500
aI433499
aa(lp898
g6
aI248635
aI441633
aaa(lp899
(lp900
g4
aI323950
aI570680
aa(lp901
g6
aI300110
aI534763
aaa(lp902
(lp903
g4
aI402302
aI711688
aa(lp904
g6
aI403060
aI717488
aaa(lp905
(lp906
g4
aI497633
aI866467
aa(lp907
g6
aI502618
aI891424
aaa(lp908
(lp909
g4
aI597549
aI1038854
aa(lp910
g6
aI589115
aI1045045
aaa(lp911
(lp912
g4
aI1265033
aI2245933
aa(lp913
g6
aI1265691
aI2259788
aaa(lp914
(lp915
g4
aI1373256
aI2444783
aa(lp916
g6
aI1360057
aI2428222
aaa(lp917
(lp918
g4
aI1487752
aI2649855
aa(lp919
g6
aI1466243
aI2615705
aaa(lp920
(lp921
g4
aI1547465
aI2760173
aa(lp922
g6
aI1544361
aI2756735
aaa(lp923
(lp924
g4
aI1548919
aI2767050
aa(lp925
g6
aI1561010
aI2792032
aaa(lp926
(lp927
g4
aI1597311
aI2861088
aa(lp928
g6
aI1611564
aI2885332
aaa(lp929
(lp930
g4
aI1660783
aI2982183
aa(lp931
g6
aI1684479
aI2968613
aaa(lp932
(lp933
g4
aI1711668
aI3069462
aa(lp934
g6
aI1746864
aI3026691
aaa(lp935
(lp936
g4
aI512925
aI1098531
aa(lp937
g6
aI539994
aI1092492
aaa(lp938
(lp939
g4
aI10
aI10
aa(lp940
g6
aI10
aI10
aaaa(lp941
(lp942
(lp943
g4
aI10
aI10
aa(lp944
g6
aI10
aI10
aaa(lp945
(lp946
g4
aI10
aI10
aa(lp947
g6
aI10
aI10
aaa(lp948
(lp949
g4
aI10
aI10
aa(lp950
g6
aI10
aI10
aaa(lp951
(lp952
g4
aI10
aI10
aa(lp953
g6
aI10
aI10
aaa(lp954
(lp955
g4
aI10385
aI21893
aa(lp956
g6
aI10523
aI22407
aaa(lp957
(lp958
g4
aI22563
aI48637
aa(lp959
g6
aI22550
aI48180
aaa(lp960
(lp961
g4
aI148848
aI265432
aa(lp962
g6
aI143420
aI257929
aaa(lp963
(lp964
g4
aI217566
aI387056
aa(lp965
g6
aI216525
aI387895
aaa(lp966
(lp967
g4
aI286245
aI506229
aa(lp968
g6
aI277719
aI495228
aaa(lp969
(lp970
g4
aI350113
aI619019
aa(lp971
g6
aI346793
aI623329
aaa(lp972
(lp973
g4
aI437347
aI767412
aa(lp974
g6
aI437400
aI782937
aaa(lp975
(lp976
g4
aI526625
aI916747
aa(lp977
g6
aI534905
aI955590
aaa(lp978
(lp979
g4
aI1113759
aI1980094
aa(lp980
g6
aI1113157
aI1998106
aaa(lp981
(lp982
g4
aI1268610
aI2253972
aa(lp983
g6
aI1221763
aI2197027
aaa(lp984
(lp985
g4
aI1301687
aI2322334
aa(lp986
g6
aI1273697
aI2289981
aaa(lp987
(lp988
g4
aI1381987
aI2470982
aa(lp989
g6
aI1375926
aI2472055
aaa(lp990
(lp991
g4
aI1427582
aI2554145
aa(lp992
g6
aI1424473
aI2563534
aaa(lp993
(lp994
g4
aI1471122
aI2639055
aa(lp995
g6
aI1473619
aI2654459
aaa(lp996
(lp997
g4
aI1520736
aI2728409
aa(lp998
g6
aI1550014
aI2740874
aaa(lp999
(lp1000
g4
aI1538021
aI2773608
aa(lp1001
g6
aI1586140
aI2762061
aaa(lp1002
(lp1003
g4
aI468129
aI1004009
aa(lp1004
g6
aI485035
aI986333
aaa(lp1005
(lp1006
g4
aI10
aI10
aa(lp1007
g6
aI10
aI10
aaaa(lp1008
(lp1009
(lp1010
g4
aI10
aI10
aa(lp1011
g6
aI10
aI10
aaa(lp1012
(lp1013
g4
aI10
aI10
aa(lp1014
g6
aI10
aI10
aaa(lp1015
(lp1016
g4
aI10
aI10
aa(lp1017
g6
aI10
aI10
aaa(lp1018
(lp1019
g4
aI10
aI10
aa(lp1020
g6
aI10
aI10
aaa(lp1021
(lp1022
g4
aI8378
aI17650
aa(lp1023
g6
aI8977
aI19165
aaa(lp1024
(lp1025
g4
aI19458
aI41450
aa(lp1026
g6
aI18175
aI39641
aaa(lp1027
(lp1028
g4
aI123484
aI219926
aa(lp1029
g6
aI117148
aI212104
aaa(lp1030
(lp1031
g4
aI176931
aI317086
aa(lp1032
g6
aI171517
aI308644
aaa(lp1033
(lp1034
g4
aI222320
aI397786
aa(lp1035
g6
aI234602
aI423674
aaa(lp1036
(lp1037
g4
aI291113
aI521036
aa(lp1038
g6
aI303085
aI545885
aaa(lp1039
(lp1040
g4
aI380061
aI663791
aa(lp1041
g6
aI364972
aI655970
aaa(lp1042
(lp1043
g4
aI455520
aI793825
aa(lp1044
g6
aI434322
aI781664
aaa(lp1045
(lp1046
g4
aI959560
aI1710372
aa(lp1047
g6
aI935570
aI1694116
aaa(lp1048
(lp1049
g4
aI1069650
aI1908646
aa(lp1050
g6
aI1034447
aI1872354
aaa(lp1051
(lp1052
g4
aI1119071
aI2003980
aa(lp1053
g6
aI1118768
aI2021930
aaa(lp1054
(lp1055
g4
aI1176654
aI2107011
aa(lp1056
g6
aI1183108
aI2139540
aaa(lp1057
(lp1058
g4
aI1233613
aI2212732
aa(lp1059
g6
aI1218251
aI2208444
aaa(lp1060
(lp1061
g4
aI1282204
aI2303386
aa(lp1062
g6
aI1286311
aI2328905
aaa(lp1063
(lp1064
g4
aI1331356
aI2397231
aa(lp1065
g6
aI1367374
aI2423555
aaa(lp1066
(lp1067
g4
aI1381679
aI2485324
aa(lp1068
g6
aI1423823
aI2486771
aaa(lp1069
(lp1070
g4
aI409863
aI878945
aa(lp1071
g6
aI435738
aI877335
aaa(lp1072
(lp1073
g4
aI10
aI10
aa(lp1074
g6
aI10
aI10
aaaa(lp1075
(lp1076
(lp1077
g4
aI10
aI10
aa(lp1078
g6
aI10
aI10
aaa(lp1079
(lp1080
g4
aI10
aI10
aa(lp1081
g6
aI10
aI10
aaa(lp1082
(lp1083
g4
aI10
aI10
aa(lp1084
g6
aI10
aI10
aaa(lp1085
(lp1086
g4
aI10
aI10
aa(lp1087
g6
aI10
aI10
aaa(lp1088
(lp1089
g4
aI6163
aI13451
aa(lp1090
g6
aI6486
aI13736
aaa(lp1091
(lp1092
g4
aI13240
aI28673
aa(lp1093
g6
aI13719
aI29297
aaa(lp1094
(lp1095
g4
aI99709
aI175940
aa(lp1096
g6
aI96248
aI174722
aaa(lp1097
(lp1098
g4
aI134027
aI241110
aa(lp1099
g6
aI130807
aI235662
aaa(lp1100
(lp1101
g4
aI167903
aI302658
aa(lp1102
g6
aI179714
aI323964
aaa(lp1103
(lp1104
g4
aI220153
aI391648
aa(lp1105
g6
aI223178
aI401738
aaa(lp1106
(lp1107
g4
aI273050
aI480181
aa(lp1108
g6
aI272899
aI490910
aaa(lp1109
(lp1110
g4
aI342139
aI600514
aa(lp1111
g6
aI325424
aI587143
aaa(lp1112
(lp1113
g4
aI732491
aI1309626
aa(lp1114
g6
aI695572
aI1260023
aaa(lp1115
(lp1116
g4
aI783433
aI1403560
aa(lp1117
g6
aI789896
aI1435773
aaa(lp1118
(lp1119
g4
aI863516
aI1548388
aa(lp1120
g6
aI839676
aI1523765
aaa(lp1121
(lp1122
g4
aI908254
aI1628764
aa(lp1123
g6
aI909991
aI1648098
aaa(lp1124
(lp1125
g4
aI960441
aI1719977
aa(lp1126
g6
aI955236
aI1727811
aaa(lp1127
(lp1128
g4
aI999782
aI1797209
aa(lp1129
g6
aI979738
aI1776879
aaa(lp1130
(lp1131
g4
aI1024875
aI1844940
aa(lp1132
g6
aI1022529
aI1845937
aaa(lp1133
(lp1134
g4
aI1064919
aI1916557
aa(lp1135
g6
aI1097692
aI1928348
aaa(lp1136
(lp1137
g4
aI316399
aI680507
aa(lp1138
g6
aI329554
aI668904
aaa(lp1139
(lp1140
g4
aI10
aI10
aa(lp1141
g6
aI10
aI10
aaaa(lp1142
(lp1143
(lp1144
g4
aI10
aI10
aa(lp1145
g6
aI10
aI10
aaa(lp1146
(lp1147
g4
aI10
aI10
aa(lp1148
g6
aI10
aI10
aaa(lp1149
(lp1150
g4
aI10
aI10
aa(lp1151
g6
aI10
aI10
aaa(lp1152
(lp1153
g4
aI10
aI10
aa(lp1154
g6
aI10
aI10
aaa(lp1155
(lp1156
g4
aI5117
aI10874
aa(lp1157
g6
aI4797
aI10592
aaa(lp1158
(lp1159
g4
aI10450
aI22303
aa(lp1160
g6
aI11111
aI23758
aaa(lp1161
(lp1162
g4
aI68215
aI122867
aa(lp1163
g6
aI68661
aI124355
aaa(lp1164
(lp1165
g4
aI105287
aI189313
aa(lp1166
g6
aI97885
aI175650
aaa(lp1167
(lp1168
g4
aI126123
aI224402
aa(lp1169
g6
aI122202
aI222686
aaa(lp1170
(lp1171
g4
aI164951
aI296061
aa(lp1172
g6
aI158162
aI286627
aaa(lp1173
(lp1174
g4
aI203029
aI358200
aa(lp1175
g6
aI196181
aI353778
aaa(lp1176
(lp1177
g4
aI247537
aI436304
aa(lp1178
g6
aI243713
aI441609
aaa(lp1179
(lp1180
g4
aI529905
aI951699
aa(lp1181
g6
aI552562
aI998685
aaa(lp1182
(lp1183
g4
aI596050
aI1068497
aa(lp1184
g6
aI607734
aI1098808
aaa(lp1185
(lp1186
g4
aI644979
aI1158620
aa(lp1187
g6
aI658372
aI1191035
aaa(lp1188
(lp1189
g4
aI658784
aI1188144
aa(lp1190
g6
aI676699
aI1228795
aaa(lp1191
(lp1192
g4
aI713325
aI1284447
aa(lp1193
g6
aI705029
aI1277478
aaa(lp1194
(lp1195
g4
aI740625
aI1336217
aa(lp1196
g6
aI734795
aI1332536
aaa(lp1197
(lp1198
g4
aI786501
aI1419436
aa(lp1199
g6
aI774924
aI1391279
aaa(lp1200
(lp1201
g4
aI832115
aI1496595
aa(lp1202
g6
aI835939
aI1490037
aaa(lp1203
(lp1204
g4
aI241128
aI518900
aa(lp1205
g6
aI247833
aI510691
aaa(lp1206
(lp1207
g4
aI10
aI10
aa(lp1208
g6
aI10
aI10
aaaa(lp1209
(lp1210
(lp1211
g4
aI10
aI10
aa(lp1212
g6
aI10
aI10
aaa(lp1213
(lp1214
g4
aI10
aI10
aa(lp1215
g6
aI10
aI10
aaa(lp1216
(lp1217
g4
aI10
aI10
aa(lp1218
g6
aI10
aI10
aaa(lp1219
(lp1220
g4
aI10
aI10
aa(lp1221
g6
aI10
aI10
aaa(lp1222
(lp1223
g4
aI2539
aI5576
aa(lp1224
g6
aI2744
aI5842
aaa(lp1225
(lp1226
g4
aI5330
aI11254
aa(lp1227
g6
aI6505
aI13691
aaa(lp1228
(lp1229
g4
aI39480
aI70652
aa(lp1230
g6
aI40193
aI72099
aaa(lp1231
(lp1232
g4
aI56705
aI100048
aa(lp1233
g6
aI61635
aI111328
aaa(lp1234
(lp1235
g4
aI84210
aI148551
aa(lp1236
g6
aI76777
aI138924
aaa(lp1237
(lp1238
g4
aI96329
aI172608
aa(lp1239
g6
aI93425
aI166285
aaa(lp1240
(lp1241
g4
aI129723
aI229750
aa(lp1242
g6
aI126952
aI228328
aaa(lp1243
(lp1244
g4
aI147305
aI259037
aa(lp1245
g6
aI148832
aI268958
aaa(lp1246
(lp1247
g4
aI312502
aI560359
aa(lp1248
g6
aI316468
aI569409
aaa(lp1249
(lp1250
g4
aI365726
aI655702
aa(lp1251
g6
aI368147
aI662925
aaa(lp1252
(lp1253
g4
aI398224
aI711750
aa(lp1254
g6
aI391745
aI706355
aaa(lp1255
(lp1256
g4
aI421237
aI756178
aa(lp1257
g6
aI410317
aI737604
aaa(lp1258
(lp1259
g4
aI418028
aI754250
aa(lp1260
g6
aI417387
aI752473
aaa(lp1261
(lp1262
g4
aI444901
aI801170
aa(lp1263
g6
aI447777
aI811240
aaa(lp1264
(lp1265
g4
aI474131
aI849771
aa(lp1266
g6
aI483252
aI863959
aaa(lp1267
(lp1268
g4
aI472136
aI853295
aa(lp1269
g6
aI483605
aI868715
aaa(lp1270
(lp1271
g4
aI140979
aI302399
aa(lp1272
g6
aI147823
aI310732
aaa(lp1273
(lp1274
g4
aI10
aI10
aa(lp1275
g6
aI10
aI10
aaaa(lp1276
(lp1277
(lp1278
g4
aI10
aI10
aa(lp1279
g6
aI10
aI10
aaa(lp1280
(lp1281
g4
aI10
aI10
aa(lp1282
g6
aI10
aI10
aaa(lp1283
(lp1284
g4
aI10
aI10
aa(lp1285
g6
aI10
aI10
aaa(lp1286
(lp1287
g4
aI10
aI10
aa(lp1288
g6
aI10
aI10
aaa(lp1289
(lp1290
g4
aI1653
aI3379
aa(lp1291
g6
aI1485
aI3109
aaa(lp1292
(lp1293
g4
aI3295
aI7048
aa(lp1294
g6
aI3740
aI7754
aaa(lp1295
(lp1296
g4
aI22202
aI39307
aa(lp1297
g6
aI22170
aI39610
aaa(lp1298
(lp1299
g4
aI37179
aI65434
aa(lp1300
g6
aI29366
aI52552
aaa(lp1301
(lp1302
g4
aI38098
aI66373
aa(lp1303
g6
aI39138
aI69010
aaa(lp1304
(lp1305
g4
aI51086
aI89324
aa(lp1306
g6
aI60065
aI104677
aaa(lp1307
(lp1308
g4
aI66587
aI115999
aa(lp1309
g6
aI64987
aI113867
aaa(lp1310
(lp1311
g4
aI72725
aI126185
aa(lp1312
g6
aI78974
aI139145
aaa(lp1313
(lp1314
g4
aI156532
aI280815
aa(lp1315
g6
aI158627
aI280454
aaa(lp1316
(lp1317
g4
aI174092
aI307633
aa(lp1318
g6
aI181350
aI322599
aaa(lp1319
(lp1320
g4
aI185515
aI330907
aa(lp1321
g6
aI182439
aI325891
aaa(lp1322
(lp1323
g4
aI205865
aI367736
aa(lp1324
g6
aI202791
aI359533
aaa(lp1325
(lp1326
g4
aI200475
aI357570
aa(lp1327
g6
aI205130
aI364821
aaa(lp1328
(lp1329
g4
aI223291
aI397451
aa(lp1330
g6
aI218997
aI387881
aaa(lp1331
(lp1332
g4
aI211628
aI379549
aa(lp1333
g6
aI217646
aI385570
aaa(lp1334
(lp1335
g4
aI228961
aI410832
aa(lp1336
g6
aI228043
aI402491
aaa(lp1337
(lp1338
g4
aI65736
aI143285
aa(lp1339
g6
aI72241
aI148943
aaa(lp1340
(lp1341
g4
aI10
aI10
aa(lp1342
g6
aI10
aI10
aaaa(lp1343
(lp1344
(lp1345
g4
aI10
aI10
aa(lp1346
g6
aI10
aI10
aaa(lp1347
(lp1348
g4
aI10
aI10
aa(lp1349
g6
aI10
aI10
aaa(lp1350
(lp1351
g4
aI10
aI10
aa(lp1352
g6
aI10
aI10
aaa(lp1353
(lp1354
g4
aI10
aI10
aa(lp1355
g6
aI10
aI10
aaa(lp1356
(lp1357
g4
aI1409
aI2693
aa(lp1358
g6
aI1803
aI3633
aaa(lp1359
(lp1360
g4
aI2916
aI6077
aa(lp1361
g6
aI3292
aI6667
aaa(lp1362
(lp1363
g4
aI19956
aI35288
aa(lp1364
g6
aI22279
aI39017
aaa(lp1365
(lp1366
g4
aI28818
aI49752
aa(lp1367
g6
aI32869
aI56813
aaa(lp1368
(lp1369
g4
aI41002
aI71030
aa(lp1370
g6
aI39923
aI69066
aaa(lp1371
(lp1372
g4
aI48669
aI85040
aa(lp1373
g6
aI58744
aI101478
aaa(lp1374
(lp1375
g4
aI56118
aI97669
aa(lp1376
g6
aI63277
aI110286
aaa(lp1377
(lp1378
g4
aI68399
aI119235
aa(lp1379
g6
aI74933
aI130397
aaa(lp1380
(lp1381
g4
aI147433
aI258735
aa(lp1382
g6
aI148611
aI261962
aaa(lp1383
(lp1384
g4
aI166403
aI293742
aa(lp1385
g6
aI182539
aI320332
aaa(lp1386
(lp1387
g4
aI168359
aI299132
aa(lp1388
g6
aI178213
aI312048
aaa(lp1389
(lp1390
g4
aI175774
aI313717
aa(lp1391
g6
aI190622
aI334994
aaa(lp1392
(lp1393
g4
aI181656
aI323875
aa(lp1394
g6
aI190961
aI335191
aaa(lp1395
(lp1396
g4
aI183405
aI328329
aa(lp1397
g6
aI192844
aI341249
aaa(lp1398
(lp1399
g4
aI196832
aI352133
aa(lp1400
g6
aI199358
aI345758
aaa(lp1401
(lp1402
g4
aI195111
aI350594
aa(lp1403
g6
aI197008
aI342332
aaa(lp1404
(lp1405
g4
aI57104
aI123283
aa(lp1406
g6
aI63562
aI129169
aaa(lp1407
(lp1408
g4
aI10
aI10
aa(lp1409
g6
aI10
aI10
aaaa(lp1410
(lp1411
(lp1412
g4
aI10
aI10
aa(lp1413
g6
aI10
aI10
aaa(lp1414
(lp1415
g4
aI10
aI10
aa(lp1416
g6
aI10
aI10
aaa(lp1417
(lp1418
g4
aI10
aI10
aa(lp1419
g6
aI10
aI10
aaa(lp1420
(lp1421
g4
aI10
aI10
aa(lp1422
g6
aI10
aI10
aaa(lp1423
(lp1424
g4
aI5473
aI11222
aa(lp1425
g6
aI4205
aI8666
aaa(lp1426
(lp1427
g4
aI9592
aI19751
aa(lp1428
g6
aI9737
aI20152
aaa(lp1429
(lp1430
g4
aI66404
aI115615
aa(lp1431
g6
aI65845
aI115384
aaa(lp1432
(lp1433
g4
aI93509
aI163517
aa(lp1434
g6
aI100814
aI175422
aaa(lp1435
(lp1436
g4
aI123452
aI214996
aa(lp1437
g6
aI122186
aI214721
aaa(lp1438
(lp1439
g4
aI153981
aI267115
aa(lp1440
g6
aI151244
aI264252
aaa(lp1441
(lp1442
g4
aI180462
aI312806
aa(lp1443
g6
aI182952
aI318425
aaa(lp1444
(lp1445
g4
aI224075
aI384782
aa(lp1446
g6
aI215559
aI373583
aaa(lp1447
(lp1448
g4
aI447344
aI786617
aa(lp1449
g6
aI455371
aI794006
aaa(lp1450
(lp1451
g4
aI503758
aI883115
aa(lp1452
g6
aI490141
aI857321
aaa(lp1453
(lp1454
g4
aI495165
aI875999
aa(lp1455
g6
aI496491
aI869442
aaa(lp1456
(lp1457
g4
aI514258
aI913477
aa(lp1458
g6
aI517051
aI903817
aaa(lp1459
(lp1460
g4
aI510763
aI910486
aa(lp1461
g6
aI512071
aI897758
aaa(lp1462
(lp1463
g4
aI530954
aI948569
aa(lp1464
g6
aI520712
aI913039
aaa(lp1465
(lp1466
g4
aI520625
aI928617
aa(lp1467
g6
aI530468
aI918911
aaa(lp1468
(lp1469
g4
aI532342
aI951482
aa(lp1470
g6
aI551401
aI949220
aaa(lp1471
(lp1472
g4
aI162213
aI347911
aa(lp1473
g6
aI168997
aI343283
aaa(lp1474
(lp1475
g4
aI10
aI10
aa(lp1476
g6
aI10
aI10
aaaa.