(lp0
(lp1
(lp2
(lp3
S'h'
p4
aI10
aI10
aa(lp5
S's'
p6
aI10
aI10
aaa(lp7
(lp8
g4
aI10
aI10
aa(lp9
g6
aI10
aI10
aaa(lp10
(lp11
g4
aI10
aI10
aa(lp12
g6
aI10
aI10
aaa(lp13
(lp14
g4
aI10
aI10
aa(lp15
g6
aI10
aI10
aaa(lp16
(lp17
g4
aI10
aI10
aa(lp18
g6
aI10
aI10
aaa(lp19
(lp20
g4
aI10
aI10
aa(lp21
g6
aI10
aI10
aaa(lp22
(lp23
g4
aI10
aI10
aa(lp24
g6
aI10
aI10
aaa(lp25
(lp26
g4
aI10
aI10
aa(lp27
g6
aI10
aI10
aaa(lp28
(lp29
g4
aI10
aI10
aa(lp30
g6
aI10
aI10
aaa(lp31
(lp32
g4
aI10
aI10
aa(lp33
g6
aI10
aI10
aaa(lp34
(lp35
g4
aI10
aI10
aa(lp36
g6
aI10
aI10
aaa(lp37
(lp38
g4
aI10
aI10
aa(lp39
g6
aI10
aI10
aaa(lp40
(lp41
g4
aI10
aI10
aa(lp42
g6
aI10
aI10
aaa(lp43
(lp44
g4
aI10
aI10
aa(lp45
g6
aI10
aI10
aaa(lp46
(lp47
g4
aI10
aI10
aa(lp48
g6
aI10
aI10
aaa(lp49
(lp50
g4
aI10
aI10
aa(lp51
g6
aI10
aI10
aaa(lp52
(lp53
g4
aI10
aI10
aa(lp54
g6
aI10
aI10
aaa(lp55
(lp56
g4
aI10
aI10
aa(lp57
g6
aI10
aI10
aaa(lp58
(lp59
g4
aI10
aI10
aa(lp60
g6
aI10
aI10
aaa(lp61
(lp62
g4
aI10
aI10
aa(lp63
g6
aI10
aI10
aaa(lp64
(lp65
g4
aI10
aI10
aa(lp66
g6
aI10
aI10
aaa(lp67
(lp68
g4
aI10
aI10
aa(lp69
g6
aI10
aI10
aaaa(lp70
(lp71
(lp72
g4
aI10
aI10
aa(lp73
g6
aI10
aI10
aaa(lp74
(lp75
g4
aI10
aI10
aa(lp76
g6
aI10
aI10
aaa(lp77
(lp78
g4
aI10
aI10
aa(lp79
g6
aI10
aI10
aaa(lp80
(lp81
g4
aI10
aI10
aa(lp82
g6
aI10
aI10
aaa(lp83
(lp84
g4
aI10
aI10
aa(lp85
g6
aI10
aI10
aaa(lp86
(lp87
g4
aI10
aI10
aa(lp88
g6
aI10
aI10
aaa(lp89
(lp90
g4
aI10
aI10
aa(lp91
g6
aI10
aI10
aaa(lp92
(lp93
g4
aI10
aI10
aa(lp94
g6
aI10
aI10
aaa(lp95
(lp96
g4
aI10
aI10
aa(lp97
g6
aI10
aI10
aaa(lp98
(lp99
g4
aI10
aI10
aa(lp100
g6
aI10
aI10
aaa(lp101
(lp102
g4
aI10
aI10
aa(lp103
g6
aI10
aI10
aaa(lp104
(lp105
g4
aI10
aI10
aa(lp106
g6
aI10
aI10
aaa(lp107
(lp108
g4
aI10
aI10
aa(lp109
g6
aI10
aI10
aaa(lp110
(lp111
g4
aI10
aI10
aa(lp112
g6
aI10
aI10
aaa(lp113
(lp114
g4
aI10
aI10
aa(lp115
g6
aI10
aI10
aaa(lp116
(lp117
g4
aI10
aI10
aa(lp118
g6
aI10
aI10
aaa(lp119
(lp120
g4
aI10
aI10
aa(lp121
g6
aI10
aI10
aaa(lp122
(lp123
g4
aI10
aI10
aa(lp124
g6
aI10
aI10
aaa(lp125
(lp126
g4
aI10
aI10
aa(lp127
g6
aI10
aI10
aaa(lp128
(lp129
g4
aI10
aI10
aa(lp130
g6
aI10
aI10
aaa(lp131
(lp132
g4
aI10
aI10
aa(lp133
g6
aI10
aI10
aaa(lp134
(lp135
g4
aI10
aI10
aa(lp136
g6
aI10
aI10
aaaa(lp137
(lp138
(lp139
g4
aI10
aI10
aa(lp140
g6
aI10
aI10
aaa(lp141
(lp142
g4
aI10
aI10
aa(lp143
g6
aI10
aI10
aaa(lp144
(lp145
g4
aI10
aI10
aa(lp146
g6
aI10
aI10
aaa(lp147
(lp148
g4
aI10
aI10
aa(lp149
g6
aI10
aI10
aaa(lp150
(lp151
g4
aI32641
aI68101
aa(lp152
g6
aI33899
aI71215
aaa(lp153
(lp154
g4
aI72769
aI152906
aa(lp155
g6
aI72573
aI151339
aaa(lp156
(lp157
g4
aI223434
aI418900
aa(lp158
g6
aI219508
aI415992
aaa(lp159
(lp160
g4
aI306684
aI577722
aa(lp161
g6
aI305582
aI575144
aaa(lp162
(lp163
g4
aI375300
aI707898
aa(lp164
g6
aI365950
aI688464
aaa(lp165
(lp166
g4
aI452331
aI854353
aa(lp167
g6
aI474564
aI887301
aaa(lp168
(lp169
g4
aI544973
aI1015479
aa(lp170
g6
aI552006
aI1030354
aaa(lp171
(lp172
g4
aI632879
aI1176601
aa(lp173
g6
aI617685
aI1150127
aaa(lp174
(lp175
g4
aI1210880
aI2293332
aa(lp176
g6
aI1209786
aI2283362
aaa(lp177
(lp178
g4
aI1276249
aI2412783
aa(lp179
g6
aI1260787
aI2376439
aaa(lp180
(lp181
g4
aI1180101
aI2237187
aa(lp182
g6
aI1144012
aI2162179
aaa(lp183
(lp184
g4
aI1105147
aI2097983
aa(lp185
g6
aI1064886
aI2013955
aaa(lp186
(lp187
g4
aI976278
aI1864410
aa(lp188
g6
aI998718
aI1884742
aaa(lp189
(lp190
g4
aI938190
aI1789592
aa(lp191
g6
aI921232
aI1746851
aaa(lp192
(lp193
g4
aI838119
aI1605092
aa(lp194
g6
aI868508
aI1635769
aaa(lp195
(lp196
g4
aI779355
aI1493709
aa(lp197
g6
aI781482
aI1470272
aaa(lp198
(lp199
g4
aI674466
aI1446749
aa(lp200
g6
aI682713
aI1426489
aaa(lp201
(lp202
g4
aI10
aI10
aa(lp203
g6
aI10
aI10
aaaa(lp204
(lp205
(lp206
g4
aI10
aI10
aa(lp207
g6
aI10
aI10
aaa(lp208
(lp209
g4
aI10
aI10
aa(lp210
g6
aI10
aI10
aaa(lp211
(lp212
g4
aI10
aI10
aa(lp213
g6
aI10
aI10
aaa(lp214
(lp215
g4
aI10
aI10
aa(lp216
g6
aI10
aI10
aaa(lp217
(lp218
g4
aI35794
aI74956
aa(lp219
g6
aI35928
aI76928
aaa(lp220
(lp221
g4
aI72902
aI152606
aa(lp222
g6
aI72467
aI151989
aaa(lp223
(lp224
g4
aI220884
aI416740
aa(lp225
g6
aI233560
aI438004
aaa(lp226
(lp227
g4
aI308908
aI579624
aa(lp228
g6
aI327436
aI610579
aaa(lp229
(lp230
g4
aI373603
aI702125
aa(lp231
g6
aI368765
aI693724
aaa(lp232
(lp233
g4
aI454699
aI852370
aa(lp234
g6
aI463415
aI868042
aaa(lp235
(lp236
g4
aI540246
aI1008244
aa(lp237
g6
aI551982
aI1029057
aaa(lp238
(lp239
g4
aI605306
aI1127837
aa(lp240
g6
aI633654
aI1179526
aaa(lp241
(lp242
g4
aI1215495
aI2303811
aa(lp243
g6
aI1247182
aI2343715
aaa(lp244
(lp245
g4
aI1192651
aI2265536
aa(lp246
g6
aI1217900
aI2288168
aaa(lp247
(lp248
g4
aI1154675
aI2193260
aa(lp249
g6
aI1148590
aI2168781
aaa(lp250
(lp251
g4
aI1103233
aI2099785
aa(lp252
g6
aI1089531
aI2056992
aaa(lp253
(lp254
g4
aI1019611
aI1937631
aa(lp255
g6
aI1024764
aI1930368
aaa(lp256
(lp257
g4
aI920139
aI1758904
aa(lp258
g6
aI961290
aI1808155
aaa(lp259
(lp260
g4
aI848498
aI1621534
aa(lp261
g6
aI862192
aI1621547
aaa(lp262
(lp263
g4
aI773019
aI1479920
aa(lp264
g6
aI783415
aI1468969
aaa(lp265
(lp266
g4
aI677834
aI1456601
aa(lp267
g6
aI697630
aI1454516
aaa(lp268
(lp269
g4
aI10
aI10
aa(lp270
g6
aI10
aI10
aaaa(lp271
(lp272
(lp273
g4
aI10
aI10
aa(lp274
g6
aI10
aI10
aaa(lp275
(lp276
g4
aI10
aI10
aa(lp277
g6
aI10
aI10
aaa(lp278
(lp279
g4
aI10
aI10
aa(lp280
g6
aI10
aI10
aaa(lp281
(lp282
g4
aI10
aI10
aa(lp283
g6
aI10
aI10
aaa(lp284
(lp285
g4
aI36139
aI75566
aa(lp286
g6
aI37860
aI78693
aaa(lp287
(lp288
g4
aI78591
aI163696
aa(lp289
g6
aI78586
aI165310
aaa(lp290
(lp291
g4
aI217712
aI408573
aa(lp292
g6
aI227845
aI425833
aaa(lp293
(lp294
g4
aI320941
aI600966
aa(lp295
g6
aI312282
aI584968
aaa(lp296
(lp297
g4
aI398302
aI748472
aa(lp298
g6
aI396690
aI742929
aaa(lp299
(lp300
g4
aI476760
aI893484
aa(lp301
g6
aI479564
aI899924
aaa(lp302
(lp303
g4
aI561530
aI1048037
aa(lp304
g6
aI545253
aI1021865
aaa(lp305
(lp306
g4
aI648421
aI1204851
aa(lp307
g6
aI656841
aI1220145
aaa(lp308
(lp309
g4
aI1297610
aI2449421
aa(lp310
g6
aI1274963
aI2390229
aaa(lp311
(lp312
g4
aI1313784
aI2489906
aa(lp313
g6
aI1267813
aI2382912
aaa(lp314
(lp315
g4
aI1186636
aI2247299
aa(lp316
g6
aI1200033
aI2251650
aaa(lp317
(lp318
g4
aI1171518
aI2223222
aa(lp319
g6
aI1142257
aI2148735
aaa(lp320
(lp321
g4
aI1046093
aI1991599
aa(lp322
g6
aI1084039
aI2038008
aaa(lp323
(lp324
g4
aI981859
aI1875980
aa(lp325
g6
aI1021661
aI1917972
aaa(lp326
(lp327
g4
aI895672
aI1705058
aa(lp328
g6
aI907165
aI1709731
aaa(lp329
(lp330
g4
aI797971
aI1524449
aa(lp331
g6
aI846562
aI1589460
aaa(lp332
(lp333
g4
aI715681
aI1536469
aa(lp334
g6
aI727022
aI1501202
aaa(lp335
(lp336
g4
aI10
aI10
aa(lp337
g6
aI10
aI10
aaaa(lp338
(lp339
(lp340
g4
aI10
aI10
aa(lp341
g6
aI10
aI10
aaa(lp342
(lp343
g4
aI10
aI10
aa(lp344
g6
aI10
aI10
aaa(lp345
(lp346
g4
aI10
aI10
aa(lp347
g6
aI10
aI10
aaa(lp348
(lp349
g4
aI10
aI10
aa(lp350
g6
aI10
aI10
aaa(lp351
(lp352
g4
aI37177
aI77176
aa(lp353
g6
aI38688
aI79651
aaa(lp354
(lp355
g4
aI83459
aI175354
aa(lp356
g6
aI83089
aI173089
aaa(lp357
(lp358
g4
aI263933
aI492259
aa(lp359
g6
aI266995
aI495471
aaa(lp360
(lp361
g4
aI320430
aI602365
aa(lp362
g6
aI310295
aI584935
aaa(lp363
(lp364
g4
aI418751
aI781854
aa(lp365
g6
aI414133
aI773477
aaa(lp366
(lp367
g4
aI487522
aI914882
aa(lp368
g6
aI496122
aI927232
aaa(lp369
(lp370
g4
aI586403
aI1086408
aa(lp371
g6
aI569329
aI1060829
aaa(lp372
(lp373
g4
aI674668
aI1245227
aa(lp374
g6
aI706081
aI1308037
aaa(lp375
(lp376
g4
aI1385185
aI2610557
aa(lp377
g6
aI1344247
aI2520214
aaa(lp378
(lp379
g4
aI1386315
aI2617863
aa(lp380
g6
aI1339262
aI2507071
aaa(lp381
(lp382
g4
aI1290050
aI2437775
aa(lp383
g6
aI1289428
aI2419893
aaa(lp384
(lp385
g4
aI1154529
aI2198391
aa(lp386
g6
aI1168003
aI2191483
aaa(lp387
(lp388
g4
aI1137129
aI2160777
aa(lp389
g6
aI1140857
aI2143349
aaa(lp390
(lp391
g4
aI1083848
aI2061270
aa(lp392
g6
aI1077201
aI2022718
aaa(lp393
(lp394
g4
aI993987
aI1897621
aa(lp395
g6
aI981125
aI1834408
aaa(lp396
(lp397
g4
aI888836
aI1698849
aa(lp398
g6
aI936018
aI1742439
aaa(lp399
(lp400
g4
aI754878
aI1619174
aa(lp401
g6
aI785663
aI1624309
aaa(lp402
(lp403
g4
aI10
aI10
aa(lp404
g6
aI10
aI10
aaaa(lp405
(lp406
(lp407
g4
aI10
aI10
aa(lp408
g6
aI10
aI10
aaa(lp409
(lp410
g4
aI10
aI10
aa(lp411
g6
aI10
aI10
aaa(lp412
(lp413
g4
aI10
aI10
aa(lp414
g6
aI10
aI10
aaa(lp415
(lp416
g4
aI10
aI10
aa(lp417
g6
aI10
aI10
aaa(lp418
(lp419
g4
aI40676
aI84036
aa(lp420
g6
aI40576
aI84958
aaa(lp421
(lp422
g4
aI85224
aI178222
aa(lp423
g6
aI86667
aI180933
aaa(lp424
(lp425
g4
aI274380
aI509921
aa(lp426
g6
aI248199
aI464414
aaa(lp427
(lp428
g4
aI345198
aI648430
aa(lp429
g6
aI359830
aI672175
aaa(lp430
(lp431
g4
aI426353
aI800375
aa(lp432
g6
aI416801
aI780747
aaa(lp433
(lp434
g4
aI519513
aI970520
aa(lp435
g6
aI514968
aI964264
aaa(lp436
(lp437
g4
aI605661
aI1124483
aa(lp438
g6
aI611252
aI1140931
aaa(lp439
(lp440
g4
aI711072
aI1312736
aa(lp441
g6
aI720874
aI1341362
aaa(lp442
(lp443
g4
aI1414939
aI2665948
aa(lp444
g6
aI1413727
aI2653610
aaa(lp445
(lp446
g4
aI1448517
aI2727951
aa(lp447
g6
aI1458615
aI2731299
aaa(lp448
(lp449
g4
aI1380269
aI2608389
aa(lp450
g6
aI1414503
aI2650633
aaa(lp451
(lp452
g4
aI1271463
aI2415032
aa(lp453
g6
aI1355833
aI2536485
aaa(lp454
(lp455
g4
aI1240871
aI2348162
aa(lp456
g6
aI1212608
aI2272719
aaa(lp457
(lp458
g4
aI1161895
aI2208119
aa(lp459
g6
aI1149544
aI2162245
aaa(lp460
(lp461
g4
aI1092874
aI2084995
aa(lp462
g6
aI1089993
aI2033370
aaa(lp463
(lp464
g4
aI1059640
aI2018459
aa(lp465
g6
aI1029070
aI1904568
aaa(lp466
(lp467
g4
aI821655
aI1761097
aa(lp468
g6
aI864659
aI1773046
aaa(lp469
(lp470
g4
aI10
aI10
aa(lp471
g6
aI10
aI10
aaaa(lp472
(lp473
(lp474
g4
aI10
aI10
aa(lp475
g6
aI10
aI10
aaa(lp476
(lp477
g4
aI10
aI10
aa(lp478
g6
aI10
aI10
aaa(lp479
(lp480
g4
aI10
aI10
aa(lp481
g6
aI10
aI10
aaa(lp482
(lp483
g4
aI10
aI10
aa(lp484
g6
aI10
aI10
aaa(lp485
(lp486
g4
aI42202
aI89400
aa(lp487
g6
aI41609
aI88184
aaa(lp488
(lp489
g4
aI88276
aI186663
aa(lp490
g6
aI89815
aI188434
aaa(lp491
(lp492
g4
aI271645
aI513651
aa(lp493
g6
aI276923
aI525269
aaa(lp494
(lp495
g4
aI379532
aI714979
aa(lp496
g6
aI357113
aI679136
aaa(lp497
(lp498
g4
aI473591
aI885952
aa(lp499
g6
aI466591
aI883343
aaa(lp500
(lp501
g4
aI571459
aI1070426
aa(lp502
g6
aI579313
aI1092914
aaa(lp503
(lp504
g4
aI675127
aI1256616
aa(lp505
g6
aI658935
aI1244821
aaa(lp506
(lp507
g4
aI780831
aI1448195
aa(lp508
g6
aI721970
aI1371464
aaa(lp509
(lp510
g4
aI1562073
aI2947851
aa(lp511
g6
aI1521730
aI2901402
aaa(lp512
(lp513
g4
aI1613967
aI3050888
aa(lp514
g6
aI1599929
aI3041334
aaa(lp515
(lp516
g4
aI1565838
aI2975582
aa(lp517
g6
aI1545462
aI2939828
aaa(lp518
(lp519
g4
aI1511587
aI2879378
aa(lp520
g6
aI1479942
aI2823214
aaa(lp521
(lp522
g4
aI1473572
aI2802421
aa(lp523
g6
aI1440842
aI2751095
aaa(lp524
(lp525
g4
aI1380613
aI2636843
aa(lp526
g6
aI1383670
aI2635937
aaa(lp527
(lp528
g4
aI1360502
aI2595682
aa(lp529
g6
aI1398014
aI2579058
aaa(lp530
(lp531
g4
aI1313312
aI2512165
aa(lp532
g6
aI1359980
aI2484931
aaa(lp533
(lp534
g4
aI994132
aI2135493
aa(lp535
g6
aI1043156
aI2113913
aaa(lp536
(lp537
g4
aI10
aI10
aa(lp538
g6
aI10
aI10
aaaa(lp539
(lp540
(lp541
g4
aI10
aI10
aa(lp542
g6
aI10
aI10
aaa(lp543
(lp544
g4
aI10
aI10
aa(lp545
g6
aI10
aI10
aaa(lp546
(lp547
g4
aI10
aI10
aa(lp548
g6
aI10
aI10
aaa(lp549
(lp550
g4
aI10
aI10
aa(lp551
g6
aI10
aI10
aaa(lp552
(lp553
g4
aI43818
aI92511
aa(lp554
g6
aI42987
aI91106
aaa(lp555
(lp556
g4
aI92677
aI195643
aa(lp557
g6
aI89501
aI191415
aaa(lp558
(lp559
g4
aI276658
aI521854
aa(lp560
g6
aI284146
aI538597
aaa(lp561
(lp562
g4
aI396741
aI750266
aa(lp563
g6
aI378336
aI720919
aaa(lp564
(lp565
g4
aI487005
aI918707
aa(lp566
g6
aI468531
aI889967
aaa(lp567
(lp568
g4
aI584095
aI1097844
aa(lp569
g6
aI597680
aI1133867
aaa(lp570
(lp571
g4
aI696068
aI1295360
aa(lp572
g6
aI669872
aI1270354
aaa(lp573
(lp574
g4
aI800686
aI1494075
aa(lp575
g6
aI794667
aI1504336
aaa(lp576
(lp577
g4
aI1636156
aI3094357
aa(lp578
g6
aI1631582
aI3111999
aaa(lp579
(lp580
g4
aI1737457
aI3290210
aa(lp581
g6
aI1747679
aI3319116
aaa(lp582
(lp583
g4
aI1620848
aI3082780
aa(lp584
g6
aI1678150
aI3199901
aaa(lp585
(lp586
g4
aI1629362
aI3099206
aa(lp587
g6
aI1610419
aI3075752
aaa(lp588
(lp589
g4
aI1559446
aI2972775
aa(lp590
g6
aI1585222
aI3023116
aaa(lp591
(lp592
g4
aI1577520
aI3005964
aa(lp593
g6
aI1533175
aI2923428
aaa(lp594
(lp595
g4
aI1466589
aI2798096
aa(lp596
g6
aI1452666
aI2757170
aaa(lp597
(lp598
g4
aI1435214
aI2746508
aa(lp599
g6
aI1516750
aI2778584
aaa(lp600
(lp601
g4
aI1068038
aI2296249
aa(lp602
g6
aI1139824
aI2300886
aaa(lp603
(lp604
g4
aI10
aI10
aa(lp605
g6
aI10
aI10
aaaa(lp606
(lp607
(lp608
g4
aI10
aI10
aa(lp609
g6
aI10
aI10
aaa(lp610
(lp611
g4
aI10
aI10
aa(lp612
g6
aI10
aI10
aaa(lp613
(lp614
g4
aI10
aI10
aa(lp615
g6
aI10
aI10
aaa(lp616
(lp617
g4
aI10
aI10
aa(lp618
g6
aI10
aI10
aaa(lp619
(lp620
g4
aI44892
aI95264
aa(lp621
g6
aI45475
aI96632
aaa(lp622
(lp623
g4
aI92688
aI196064
aa(lp624
g6
aI92007
aI195618
aaa(lp625
(lp626
g4
aI276640
aI526004
aa(lp627
g6
aI273992
aI523061
aaa(lp628
(lp629
g4
aI396878
aI750842
aa(lp630
g6
aI391955
aI742002
aaa(lp631
(lp632
g4
aI497561
aI937827
aa(lp633
g6
aI508843
aI962791
aaa(lp634
(lp635
g4
aI599825
aI1133954
aa(lp636
g6
aI602580
aI1145399
aaa(lp637
(lp638
g4
aI727691
aI1362870
aa(lp639
g6
aI714283
aI1356887
aaa(lp640
(lp641
g4
aI824738
aI1540352
aa(lp642
g6
aI819262
aI1554875
aaa(lp643
(lp644
g4
aI1712440
aI3249460
aa(lp645
g6
aI1646158
aI3149410
aaa(lp646
(lp647
g4
aI1780698
aI3383239
aa(lp648
g6
aI1805125
aI3436093
aaa(lp649
(lp650
g4
aI1785121
aI3389197
aa(lp651
g6
aI1744822
aI3325869
aaa(lp652
(lp653
g4
aI1727703
aI3293198
aa(lp654
g6
aI1716453
aI3275105
aaa(lp655
(lp656
g4
aI1681792
aI3209260
aa(lp657
g6
aI1743497
aI3319803
aaa(lp658
(lp659
g4
aI1647616
aI3155088
aa(lp660
g6
aI1668392
aI3186644
aaa(lp661
(lp662
g4
aI1574765
aI3018098
aa(lp663
g6
aI1601997
aI3042104
aaa(lp664
(lp665
g4
aI1536876
aI2942912
aa(lp666
g6
aI1548128
aI2911481
aaa(lp667
(lp668
g4
aI1152367
aI2473202
aa(lp669
g6
aI1184793
aI2400888
aaa(lp670
(lp671
g4
aI10
aI10
aa(lp672
g6
aI10
aI10
aaaa(lp673
(lp674
(lp675
g4
aI10
aI10
aa(lp676
g6
aI10
aI10
aaa(lp677
(lp678
g4
aI10
aI10
aa(lp679
g6
aI10
aI10
aaa(lp680
(lp681
g4
aI10
aI10
aa(lp682
g6
aI10
aI10
aaa(lp683
(lp684
g4
aI10
aI10
aa(lp685
g6
aI10
aI10
aaa(lp686
(lp687
g4
aI138991
aI294393
aa(lp688
g6
aI138745
aI295023
aaa(lp689
(lp690
g4
aI300361
aI634281
aa(lp691
g6
aI306030
aI648339
aaa(lp692
(lp693
g4
aI897905
aI1703294
aa(lp694
g6
aI904702
aI1719345
aaa(lp695
(lp696
g4
aI1292253
aI2442272
aa(lp697
g6
aI1209864
aI2309170
aaa(lp698
(lp699
g4
aI1577113
aI2979864
aa(lp700
g6
aI1562765
aI2970374
aaa(lp701
(lp702
g4
aI1984095
aI3738119
aa(lp703
g6
aI1919054
aI3652866
aaa(lp704
(lp705
g4
aI2296258
aI4316830
aa(lp706
g6
aI2279203
aI4328609
aaa(lp707
(lp708
g4
aI2648872
aI4947208
aa(lp709
g6
aI2582367
aI4905772
aaa(lp710
(lp711
g4
aI5302308
aI10074153
aa(lp712
g6
aI5362656
aI10205769
aaa(lp713
(lp714
g4
aI5570086
aI10584855
aa(lp715
g6
aI5536302
aI10540588
aaa(lp716
(lp717
g4
aI5439774
aI10356565
aa(lp718
g6
aI5252443
aI10019848
aaa(lp719
(lp720
g4
aI5405829
aI10280302
aa(lp721
g6
aI5191321
aI9912932
aaa(lp722
(lp723
g4
aI5115578
aI9776406
aa(lp724
g6
aI4972072
aI9505242
aaa(lp725
(lp726
g4
aI4960156
aI9478108
aa(lp727
g6
aI4905306
aI9369117
aaa(lp728
(lp729
g4
aI4714917
aI9044896
aa(lp730
g6
aI4737913
aI8979119
aaa(lp731
(lp732
g4
aI4587168
aI8798340
aa(lp733
g6
aI4588316
aI8619543
aaa(lp734
(lp735
g4
aI3405623
aI7323769
aa(lp736
g6
aI3476609
aI7194518
aaa(lp737
(lp738
g4
aI10
aI10
aa(lp739
g6
aI10
aI10
aaaa(lp740
(lp741
(lp742
g4
aI10
aI10
aa(lp743
g6
aI10
aI10
aaa(lp744
(lp745
g4
aI10
aI10
aa(lp746
g6
aI10
aI10
aaa(lp747
(lp748
g4
aI10
aI10
aa(lp749
g6
aI10
aI10
aaa(lp750
(lp751
g4
aI10
aI10
aa(lp752
g6
aI10
aI10
aaa(lp753
(lp754
g4
aI32238
aI67692
aa(lp755
g6
aI33599
aI71523
aaa(lp756
(lp757
g4
aI67461
aI144080
aa(lp758
g6
aI66986
aI142452
aaa(lp759
(lp760
g4
aI206475
aI392137
aa(lp761
g6
aI207561
aI394237
aaa(lp762
(lp763
g4
aI282320
aI536060
aa(lp764
g6
aI286311
aI544836
aaa(lp765
(lp766
g4
aI354621
aI673060
aa(lp767
g6
aI348285
aI666458
aaa(lp768
(lp769
g4
aI429681
aI814849
aa(lp770
g6
aI437731
aI835438
aaa(lp771
(lp772
g4
aI507209
aI954665
aa(lp773
g6
aI510522
aI973188
aaa(lp774
(lp775
g4
aI631248
aI1175797
aa(lp776
g6
aI619731
aI1172936
aaa(lp777
(lp778
g4
aI1250697
aI2378667
aa(lp779
g6
aI1257253
aI2396370
aaa(lp780
(lp781
g4
aI1297034
aI2471816
aa(lp782
g6
aI1284474
aI2456326
aaa(lp783
(lp784
g4
aI1274795
aI2429607
aa(lp785
g6
aI1261709
aI2417689
aaa(lp786
(lp787
g4
aI1263460
aI2416821
aa(lp788
g6
aI1256505
aI2402191
aaa(lp789
(lp790
g4
aI1248526
aI2382181
aa(lp791
g6
aI1201058
aI2297736
aaa(lp792
(lp793
g4
aI1217598
aI2330283
aa(lp794
g6
aI1219937
aI2329215
aaa(lp795
(lp796
g4
aI1189161
aI2273128
aa(lp797
g6
aI1157619
aI2188779
aaa(lp798
(lp799
g4
aI1173464
aI2247014
aa(lp800
g6
aI1159503
aI2165059
aaa(lp801
(lp802
g4
aI861207
aI1850088
aa(lp803
g6
aI862982
aI1765246
aaa(lp804
(lp805
g4
aI10
aI10
aa(lp806
g6
aI10
aI10
aaaa(lp807
(lp808
(lp809
g4
aI10
aI10
aa(lp810
g6
aI10
aI10
aaa(lp811
(lp812
g4
aI10
aI10
aa(lp813
g6
aI10
aI10
aaa(lp814
(lp815
g4
aI10
aI10
aa(lp816
g6
aI10
aI10
aaa(lp817
(lp818
g4
aI10
aI10
aa(lp819
g6
aI10
aI10
aaa(lp820
(lp821
g4
aI12682
aI26319
aa(lp822
g6
aI11868
aI25029
aaa(lp823
(lp824
g4
aI26818
aI55980
aa(lp825
g6
aI25613
aI54569
aaa(lp826
(lp827
g4
aI80513
aI152967
aa(lp828
g6
aI83791
aI159008
aaa(lp829
(lp830
g4
aI115608
aI217444
aa(lp831
g6
aI122041
aI229554
aaa(lp832
(lp833
g4
aI151984
aI285309
aa(lp834
g6
aI147354
aI277502
aaa(lp835
(lp836
g4
aI197080
aI368539
aa(lp837
g6
aI198202
aI372142
aaa(lp838
(lp839
g4
aI230495
aI431176
aa(lp840
g6
aI237416
aI445771
aaa(lp841
(lp842
g4
aI267239
aI497934
aa(lp843
g6
aI287318
aI541218
aaa(lp844
(lp845
g4
aI567041
aI1076216
aa(lp846
g6
aI610933
aI1157731
aaa(lp847
(lp848
g4
aI690274
aI1299925
aa(lp849
g6
aI656710
aI1244860
aaa(lp850
(lp851
g4
aI689437
aI1310298
aa(lp852
g6
aI671508
aI1278213
aaa(lp853
(lp854
g4
aI720622
aI1370986
aa(lp855
g6
aI684919
aI1302055
aaa(lp856
(lp857
g4
aI747256
aI1421867
aa(lp858
g6
aI719304
aI1368280
aaa(lp859
(lp860
g4
aI741391
aI1416389
aa(lp861
g6
aI753183
aI1434317
aaa(lp862
(lp863
g4
aI768080
aI1465261
aa(lp864
g6
aI770682
aI1444450
aaa(lp865
(lp866
g4
aI802071
aI1535471
aa(lp867
g6
aI787866
aI1458976
aaa(lp868
(lp869
g4
aI503989
aI1080770
aa(lp870
g6
aI522912
aI1059003
aaa(lp871
(lp872
g4
aI10
aI10
aa(lp873
g6
aI10
aI10
aaaa(lp874
(lp875
(lp876
g4
aI10
aI10
aa(lp877
g6
aI10
aI10
aaa(lp878
(lp879
g4
aI10
aI10
aa(lp880
g6
aI10
aI10
aaa(lp881
(lp882
g4
aI10
aI10
aa(lp883
g6
aI10
aI10
aaa(lp884
(lp885
g4
aI10
aI10
aa(lp886
g6
aI10
aI10
aaa(lp887
(lp888
g4
aI11806
aI24866
aa(lp889
g6
aI11796
aI25966
aaa(lp890
(lp891
g4
aI26548
aI55913
aa(lp892
g6
aI24813
aI53540
aaa(lp893
(lp894
g4
aI76213
aI144408
aa(lp895
g6
aI75022
aI142808
aaa(lp896
(lp897
g4
aI112213
aI212997
aa(lp898
g6
aI116080
aI219259
aaa(lp899
(lp900
g4
aI144093
aI272927
aa(lp901
g6
aI144835
aI273159
aaa(lp902
(lp903
g4
aI182091
aI346098
aa(lp904
g6
aI185133
aI352531
aaa(lp905
(lp906
g4
aI242452
aI448632
aa(lp907
g6
aI241014
aI454399
aaa(lp908
(lp909
g4
aI267495
aI498933
aa(lp910
g6
aI273469
aI518548
aaa(lp911
(lp912
g4
aI582626
aI1106932
aa(lp913
g6
aI604014
aI1149226
aaa(lp914
(lp915
g4
aI648550
aI1231278
aa(lp916
g6
aI619210
aI1181919
aaa(lp917
(lp918
g4
aI685905
aI1306593
aa(lp919
g6
aI678754
aI1293548
aaa(lp920
(lp921
g4
aI742042
aI1407844
aa(lp922
g6
aI702836
aI1344980
aaa(lp923
(lp924
g4
aI720239
aI1371705
aa(lp925
g6
aI741721
aI1411841
aaa(lp926
(lp927
g4
aI757773
aI1447877
aa(lp928
g6
aI769410
aI1466076
aaa(lp929
(lp930
g4
aI799378
aI1526145
aa(lp931
g6
aI792660
aI1489455
aaa(lp932
(lp933
g4
aI816732
aI1561376
aa(lp934
g6
aI825169
aI1521715
aaa(lp935
(lp936
g4
aI512925
aI1098531
aa(lp937
g6
aI539994
aI1092492
aaa(lp938
(lp939
g4
aI10
aI10
aa(lp940
g6
aI10
aI10
aaaa(lp941
(lp942
(lp943
g4
aI10
aI10
aa(lp944
g6
aI10
aI10
aaa(lp945
(lp946
g4
aI10
aI10
aa(lp947
g6
aI10
aI10
aaa(lp948
(lp949
g4
aI10
aI10
aa(lp950
g6
aI10
aI10
aaa(lp951
(lp952
g4
aI10
aI10
aa(lp953
g6
aI10
aI10
aaa(lp954
(lp955
g4
aI10385
aI21893
aa(lp956
g6
aI10523
aI22407
aaa(lp957
(lp958
g4
aI22563
aI48637
aa(lp959
g6
aI22550
aI48180
aaa(lp960
(lp961
g4
aI75463
aI142526
aa(lp962
g6
aI66661
aI127262
aaa(lp963
(lp964
g4
aI96365
aI182974
aa(lp965
g6
aI100372
aI191568
aaa(lp966
(lp967
g4
aI134642
aI254837
aa(lp968
g6
aI134730
aI254352
aaa(lp969
(lp970
g4
aI162232
aI306793
aa(lp971
g6
aI165643
aI315948
aaa(lp972
(lp973
g4
aI210930
aI395222
aa(lp974
g6
aI194512
aI372842
aaa(lp975
(lp976
g4
aI248721
aI461682
aa(lp977
g6
aI255171
aI484706
aaa(lp978
(lp979
g4
aI545013
aI1028971
aa(lp980
g6
aI510594
aI980830
aaa(lp981
(lp982
g4
aI609124
aI1149337
aa(lp983
g6
aI593519
aI1134281
aaa(lp984
(lp985
g4
aI614623
aI1170805
aa(lp986
g6
aI629065
aI1197846
aaa(lp987
(lp988
g4
aI648935
aI1237153
aa(lp989
g6
aI638930
aI1226316
aaa(lp990
(lp991
g4
aI673328
aI1284125
aa(lp992
g6
aI669927
aI1281751
aaa(lp993
(lp994
g4
aI681525
aI1304700
aa(lp995
g6
aI709587
aI1357348
aaa(lp996
(lp997
g4
aI733054
aI1400930
aa(lp998
g6
aI706354
aI1336782
aaa(lp999
(lp1000
g4
aI726982
aI1398543
aa(lp1001
g6
aI742498
aI1380792
aaa(lp1002
(lp1003
g4
aI468129
aI1004009
aa(lp1004
g6
aI485035
aI986333
aaa(lp1005
(lp1006
g4
aI10
aI10
aa(lp1007
g6
aI10
aI10
aaaa(lp1008
(lp1009
(lp1010
g4
aI10
aI10
aa(lp1011
g6
aI10
aI10
aaa(lp1012
(lp1013
g4
aI10
aI10
aa(lp1014
g6
aI10
aI10
aaa(lp1015
(lp1016
g4
aI10
aI10
aa(lp1017
g6
aI10
aI10
aaa(lp1018
(lp1019
g4
aI10
aI10
aa(lp1020
g6
aI10
aI10
aaa(lp1021
(lp1022
g4
aI8378
aI17650
aa(lp1023
g6
aI8977
aI19165
aaa(lp1024
(lp1025
g4
aI19458
aI41450
aa(lp1026
g6
aI18175
aI39641
aaa(lp1027
(lp1028
g4
aI56932
aI108173
aa(lp1029
g6
aI59236
aI113005
aaa(lp1030
(lp1031
g4
aI80887
aI154792
aa(lp1032
g6
aI77966
aI149887
aaa(lp1033
(lp1034
g4
aI102542
aI195634
aa(lp1035
g6
aI115520
aI220639
aaa(lp1036
(lp1037
g4
aI153447
aI289344
aa(lp1038
g6
aI137910
aI265028
aaa(lp1039
(lp1040
g4
aI169112
aI317794
aa(lp1041
g6
aI169687
aI325296
aaa(lp1042
(lp1043
g4
aI211746
aI393611
aa(lp1044
g6
aI208113
aI397912
aaa(lp1045
(lp1046
g4
aI444953
aI847643
aa(lp1047
g6
aI440453
aI851491
aaa(lp1048
(lp1049
g4
aI509335
aI970188
aa(lp1050
g6
aI478109
aI925652
aaa(lp1051
(lp1052
g4
aI532117
aI1014553
aa(lp1053
g6
aI528011
aI1016235
aaa(lp1054
(lp1055
g4
aI550503
aI1050746
aa(lp1056
g6
aI557482
aI1076116
aaa(lp1057
(lp1058
g4
aI585417
aI1117567
aa(lp1059
g6
aI572261
aI1105731
aaa(lp1060
(lp1061
g4
aI620274
aI1184569
aa(lp1062
g6
aI612976
aI1181515
aaa(lp1063
(lp1064
g4
aI621445
aI1194931
aa(lp1065
g6
aI649377
aI1224219
aaa(lp1066
(lp1067
g4
aI636928
aI1225261
aa(lp1068
g6
aI662261
aI1234706
aaa(lp1069
(lp1070
g4
aI409863
aI878945
aa(lp1071
g6
aI435738
aI877335
aaa(lp1072
(lp1073
g4
aI10
aI10
aa(lp1074
g6
aI10
aI10
aaaa(lp1075
(lp1076
(lp1077
g4
aI10
aI10
aa(lp1078
g6
aI10
aI10
aaa(lp1079
(lp1080
g4
aI10
aI10
aa(lp1081
g6
aI10
aI10
aaa(lp1082
(lp1083
g4
aI10
aI10
aa(lp1084
g6
aI10
aI10
aaa(lp1085
(lp1086
g4
aI10
aI10
aa(lp1087
g6
aI10
aI10
aaa(lp1088
(lp1089
g4
aI6163
aI13451
aa(lp1090
g6
aI6486
aI13736
aaa(lp1091
(lp1092
g4
aI13240
aI28673
aa(lp1093
g6
aI13719
aI29297
aaa(lp1094
(lp1095
g4
aI39396
aI75391
aa(lp1096
g6
aI52973
aI100628
aaa(lp1097
(lp1098
g4
aI63317
aI121890
aa(lp1099
g6
aI55833
aI108699
aaa(lp1100
(lp1101
g4
aI79814
aI152807
aa(lp1102
g6
aI85788
aI163354
aaa(lp1103
(lp1104
g4
aI106342
aI201568
aa(lp1105
g6
aI110132
aI210407
aaa(lp1106
(lp1107
g4
aI126301
aI236893
aa(lp1108
g6
aI117430
aI227613
aaa(lp1109
(lp1110
g4
aI170056
aI316607
aa(lp1111
g6
aI145578
aI281085
aaa(lp1112
(lp1113
g4
aI345267
aI657032
aa(lp1114
g6
aI338356
aI652664
aaa(lp1115
(lp1116
g4
aI368543
aI705141
aa(lp1117
g6
aI370002
aI716791
aaa(lp1118
(lp1119
g4
aI415562
aI792713
aa(lp1120
g6
aI410290
aI788386
aaa(lp1121
(lp1122
g4
aI439282
aI835636
aa(lp1123
g6
aI430642
aI828732
aaa(lp1124
(lp1125
g4
aI446397
aI853724
aa(lp1126
g6
aI451253
aI868891
aaa(lp1127
(lp1128
g4
aI468627
aI899231
aa(lp1129
g6
aI467481
aI901640
aaa(lp1130
(lp1131
g4
aI488164
aI936684
aa(lp1132
g6
aI490622
aI941168
aaa(lp1133
(lp1134
g4
aI511766
aI978497
aa(lp1135
g6
aI526346
aI985708
aaa(lp1136
(lp1137
g4
aI316399
aI680507
aa(lp1138
g6
aI329554
aI668904
aaa(lp1139
(lp1140
g4
aI10
aI10
aa(lp1141
g6
aI10
aI10
aaaa(lp1142
(lp1143
(lp1144
g4
aI10
aI10
aa(lp1145
g6
aI10
aI10
aaa(lp1146
(lp1147
g4
aI10
aI10
aa(lp1148
g6
aI10
aI10
aaa(lp1149
(lp1150
g4
aI10
aI10
aa(lp1151
g6
aI10
aI10
aaa(lp1152
(lp1153
g4
aI10
aI10
aa(lp1154
g6
aI10
aI10
aaa(lp1155
(lp1156
g4
aI5117
aI10874
aa(lp1157
g6
aI4797
aI10592
aaa(lp1158
(lp1159
g4
aI10450
aI22303
aa(lp1160
g6
aI11111
aI23758
aaa(lp1161
(lp1162
g4
aI32349
aI62122
aa(lp1163
g6
aI31208
aI60206
aaa(lp1164
(lp1165
g4
aI50023
aI95720
aa(lp1166
g6
aI47059
aI90114
aaa(lp1167
(lp1168
g4
aI53682
aI102967
aa(lp1169
g6
aI53479
aI105874
aaa(lp1170
(lp1171
g4
aI74083
aI141843
aa(lp1172
g6
aI77802
aI150290
aaa(lp1173
(lp1174
g4
aI91791
aI172590
aa(lp1175
g6
aI86037
aI166907
aaa(lp1176
(lp1177
g4
aI107195
aI203431
aa(lp1178
g6
aI121562
aI232761
aaa(lp1179
(lp1180
g4
aI254894
aI487314
aa(lp1181
g6
aI261044
aI501718
aaa(lp1182
(lp1183
g4
aI286889
aI545513
aa(lp1184
g6
aI296577
aI567358
aaa(lp1185
(lp1186
g4
aI301620
aI578587
aa(lp1187
g6
aI311122
aI598184
aaa(lp1188
(lp1189
g4
aI311515
aI598793
aa(lp1190
g6
aI327535
aI631480
aaa(lp1191
(lp1192
g4
aI334704
aI641938
aa(lp1193
g6
aI328596
aI632382
aaa(lp1194
(lp1195
g4
aI346599
aI668248
aa(lp1196
g6
aI338771
aI657037
aaa(lp1197
(lp1198
g4
aI379090
aI726598
aa(lp1199
g6
aI362844
aI694779
aaa(lp1200
(lp1201
g4
aI385970
aI741124
aa(lp1202
g6
aI386070
aI734408
aaa(lp1203
(lp1204
g4
aI241128
aI518900
aa(lp1205
g6
aI247833
aI510691
aaa(lp1206
(lp1207
g4
aI10
aI10
aa(lp1208
g6
aI10
aI10
aaaa(lp1209
(lp1210
(lp1211
g4
aI10
aI10
aa(lp1212
g6
aI10
aI10
aaa(lp1213
(lp1214
g4
aI10
aI10
aa(lp1215
g6
aI10
aI10
aaa(lp1216
(lp1217
g4
aI10
aI10
aa(lp1218
g6
aI10
aI10
aaa(lp1219
(lp1220
g4
aI10
aI10
aa(lp1221
g6
aI10
aI10
aaa(lp1222
(lp1223
g4
aI2539
aI5576
aa(lp1224
g6
aI2744
aI5842
aaa(lp1225
(lp1226
g4
aI5330
aI11254
aa(lp1227
g6
aI6505
aI13691
aaa(lp1228
(lp1229
g4
aI17114
aI32959
aa(lp1230
g6
aI25283
aI46997
aaa(lp1231
(lp1232
g4
aI24506
aI46259
aa(lp1233
g6
aI31832
aI59969
aaa(lp1234
(lp1235
g4
aI47111
aI87309
aa(lp1236
g6
aI38685
aI73267
aaa(lp1237
(lp1238
g4
aI40302
aI77595
aa(lp1239
g6
aI44713
aI84991
aaa(lp1240
(lp1241
g4
aI53123
aI101893
aa(lp1242
g6
aI65042
aI123035
aaa(lp1243
(lp1244
g4
aI68222
aI128426
aa(lp1245
g6
aI72251
aI138757
aaa(lp1246
(lp1247
g4
aI146240
aI279793
aa(lp1248
g6
aI141418
aI273552
aaa(lp1249
(lp1250
g4
aI176560
aI337039
aa(lp1251
g6
aI186928
aI355266
aaa(lp1252
(lp1253
g4
aI190876
aI362434
aa(lp1254
g6
aI193673
aI371091
aaa(lp1255
(lp1256
g4
aI196636
aI377275
aa(lp1257
g6
aI185726
aI358678
aaa(lp1258
(lp1259
g4
aI210223
aI401605
aa(lp1260
g6
aI188282
aI364137
aaa(lp1261
(lp1262
g4
aI213326
aI407897
aa(lp1263
g6
aI217275
aI418758
aaa(lp1264
(lp1265
g4
aI220058
aI422715
aa(lp1266
g6
aI231181
aI439910
aaa(lp1267
(lp1268
g4
aI224496
aI431973
aa(lp1269
g6
aI215749
aI415786
aaa(lp1270
(lp1271
g4
aI140979
aI302399
aa(lp1272
g6
aI147823
aI310732
aaa(lp1273
(lp1274
g4
aI10
aI10
aa(lp1275
g6
aI10
aI10
aaaa(lp1276
(lp1277
(lp1278
g4
aI10
aI10
aa(lp1279
g6
aI10
aI10
aaa(lp1280
(lp1281
g4
aI10
aI10
aa(lp1282
g6
aI10
aI10
aaa(lp1283
(lp1284
g4
aI10
aI10
aa(lp1285
g6
aI10
aI10
aaa(lp1286
(lp1287
g4
aI10
aI10
aa(lp1288
g6
aI10
aI10
aaa(lp1289
(lp1290
g4
aI1653
aI3379
aa(lp1291
g6
aI1485
aI3109
aaa(lp1292
(lp1293
g4
aI3295
aI7048
aa(lp1294
g6
aI3740
aI7754
aaa(lp1295
(lp1296
g4
aI9964
aI18780
aa(lp1297
g6
aI10309
aI19670
aaa(lp1298
(lp1299
g4
aI16315
aI30779
aa(lp1300
g6
aI13109
aI25372
aaa(lp1301
(lp1302
g4
aI16364
aI30700
aa(lp1303
g6
aI18541
aI34924
aaa(lp1304
(lp1305
g4
aI28560
aI52410
aa(lp1306
g6
aI26818
aI49945
aaa(lp1307
(lp1308
g4
aI31398
aI58611
aa(lp1309
g6
aI26690
aI50845
aaa(lp1310
(lp1311
g4
aI32463
aI60755
aa(lp1312
g6
aI35907
aI67890
aaa(lp1313
(lp1314
g4
aI74254
aI142039
aa(lp1315
g6
aI73635
aI139800
aaa(lp1316
(lp1317
g4
aI83643
aI157341
aa(lp1318
g6
aI87544
aI165532
aaa(lp1319
(lp1320
g4
aI92847
aI174476
aa(lp1321
g6
aI86610
aI164135
aaa(lp1322
(lp1323
g4
aI98980
aI187813
aa(lp1324
g6
aI97679
aI184048
aaa(lp1325
(lp1326
g4
aI93296
aI176839
aa(lp1327
g6
aI100741
aI190638
aaa(lp1328
(lp1329
g4
aI105451
aI199281
aa(lp1330
g6
aI98282
aI187034
aaa(lp1331
(lp1332
g4
aI93466
aI180043
aa(lp1333
g6
aI109162
aI204831
aaa(lp1334
(lp1335
g4
aI104966
aI202258
aa(lp1336
g6
aI107827
aI202592
aaa(lp1337
(lp1338
g4
aI65736
aI143285
aa(lp1339
g6
aI72241
aI148943
aaa(lp1340
(lp1341
g4
aI10
aI10
aa(lp1342
g6
aI10
aI10
aaaa(lp1343
(lp1344
(lp1345
g4
aI10
aI10
aa(lp1346
g6
aI10
aI10
aaa(lp1347
(lp1348
g4
aI10
aI10
aa(lp1349
g6
aI10
aI10
aaa(lp1350
(lp1351
g4
aI10
aI10
aa(lp1352
g6
aI10
aI10
aaa(lp1353
(lp1354
g4
aI10
aI10
aa(lp1355
g6
aI10
aI10
aaa(lp1356
(lp1357
g4
aI1409
aI2693
aa(lp1358
g6
aI1803
aI3633
aaa(lp1359
(lp1360
g4
aI2916
aI6077
aa(lp1361
g6
aI3292
aI6667
aaa(lp1362
(lp1363
g4
aI9163
aI17301
aa(lp1364
g6
aI10510
aI19484
aaa(lp1365
(lp1366
g4
aI12914
aI24042
aa(lp1367
g6
aI18747
aI33797
aaa(lp1368
(lp1369
g4
aI20892
aI38284
aa(lp1370
g6
aI19616
aI35913
aaa(lp1371
(lp1372
g4
aI22921
aI42764
aa(lp1373
g6
aI24098
aI45009
aaa(lp1374
(lp1375
g4
aI25990
aI48258
aa(lp1376
g6
aI27281
aI51082
aaa(lp1377
(lp1378
g4
aI32575
aI59974
aa(lp1379
g6
aI29006
aI55271
aaa(lp1380
(lp1381
g4
aI65850
aI123645
aa(lp1382
g6
aI67648
aI127805
aaa(lp1383
(lp1384
g4
aI82635
aI154014
aa(lp1385
g6
aI89975
aI167400
aaa(lp1386
(lp1387
g4
aI78635
aI148229
aa(lp1388
g6
aI80742
aI151185
aaa(lp1389
(lp1390
g4
aI78212
aI149899
aa(lp1391
g6
aI89386
aI167126
aaa(lp1392
(lp1393
g4
aI98605
aI184186
aa(lp1394
g6
aI95105
aI177235
aaa(lp1395
(lp1396
g4
aI96485
aI181484
aa(lp1397
g6
aI97100
aI181948
aaa(lp1398
(lp1399
g4
aI100063
aI189390
aa(lp1400
g6
aI93582
aI173457
aaa(lp1401
(lp1402
g4
aI91751
aI175602
aa(lp1403
g6
aI87877
aI164594
aaa(lp1404
(lp1405
g4
aI57104
aI123283
aa(lp1406
g6
aI63562
aI129169
aaa(lp1407
(lp1408
g4
aI10
aI10
aa(lp1409
g6
aI10
aI10
aaaa(lp1410
(lp1411
(lp1412
g4
aI10
aI10
aa(lp1413
g6
aI10
aI10
aaa(lp1414
(lp1415
g4
aI10
aI10
aa(lp1416
g6
aI10
aI10
aaa(lp1417
(lp1418
g4
aI10
aI10
aa(lp1419
g6
aI10
aI10
aaa(lp1420
(lp1421
g4
aI10
aI10
aa(lp1422
g6
aI10
aI10
aaa(lp1423
(lp1424
g4
aI5473
aI11222
aa(lp1425
g6
aI4205
aI8666
aaa(lp1426
(lp1427
g4
aI9592
aI19751
aa(lp1428
g6
aI9737
aI20152
aaa(lp1429
(lp1430
g4
aI30822
aI56972
aa(lp1431
g6
aI30269
aI56236
aaa(lp1432
(lp1433
g4
aI43858
aI82038
aa(lp1434
g6
aI46686
aI86273
aaa(lp1435
(lp1436
g4
aI51425
aI97320
aa(lp1437
g6
aI56413
aI106056
aaa(lp1438
(lp1439
g4
aI74738
aI138031
aa(lp1440
g6
aI71029
aI131486
aaa(lp1441
(lp1442
g4
aI82781
aI153823
aa(lp1443
g6
aI93805
aI173141
aaa(lp1444
(lp1445
g4
aI99476
aI183878
aa(lp1446
g6
aI110157
aI200756
aaa(lp1447
(lp1448
g4
aI206685
aI389009
aa(lp1449
g6
aI202446
aI377355
aaa(lp1450
(lp1451
g4
aI236632
aI442901
aa(lp1452
g6
aI237072
aI440215
aaa(lp1453
(lp1454
g4
aI231234
aI435762
aa(lp1455
g6
aI239896
aI447266
aaa(lp1456
(lp1457
g4
aI242436
aI459437
aa(lp1458
g6
aI250053
aI465344
aaa(lp1459
(lp1460
g4
aI229405
aI440431
aa(lp1461
g6
aI230858
aI432894
aaa(lp1462
(lp1463
g4
aI255828
aI485385
aa(lp1464
g6
aI249923
aI466417
aaa(lp1465
(lp1466
g4
aI249948
aI474332
aa(lp1467
g6
aI239706
aI444077
aaa(lp1468
(lp1469
g4
aI242485
aI463275
aa(lp1470
g6
aI258553
aI475056
aaa(lp1471
(lp1472
g4
aI162213
aI347911
aa(lp1473
g6
aI168997
aI343283
aaa(lp1474
(lp1475
g4
aI10
aI10
aa(lp1476
g6
aI10
aI10
aaaa.